 nslog

 Timestamp is 564ccc09 (Wed Nov 18 11:05:45 2015)

 Preferred load address is 10000000

 Start         Length     Name                   Class
 0001:00000000 000000c7H .text$di                CODE
 0001:000000d0 0001743eH .text$mn                CODE
 0001:0001750e 00000144H .text$x                 CODE
 0001:00017660 00000050H .text$yd                CODE
 0002:00000000 00000174H .idata$5                DATA
 0002:00000174 00000004H .CRT$XCA                DATA
 0002:00000178 0000001cH .CRT$XCC                DATA
 0002:00000194 00000008H .CRT$XCL                DATA
 0002:0000019c 00000004H .CRT$XCU                DATA
 0002:000001a0 00000004H .CRT$XCZ                DATA
 0002:000001a4 00000004H .CRT$XIA                DATA
 0002:000001a8 00000010H .CRT$XIC                DATA
 0002:000001b8 00000004H .CRT$XIZ                DATA
 0002:000001bc 00000004H .CRT$XPA                DATA
 0002:000001c0 00000008H .CRT$XPX                DATA
 0002:000001c8 00000004H .CRT$XPXA               DATA
 0002:000001cc 00000004H .CRT$XPZ                DATA
 0002:000001d0 00000004H .CRT$XTA                DATA
 0002:000001d4 00000004H .CRT$XTZ                DATA
 0002:000001e0 000065d0H .rdata                  DATA
 0002:000067b0 00000084H .rdata$debug            DATA
 0002:00006834 000007acH .rdata$r                DATA
 0002:00006fe0 00000034H .rdata$sxdata           DATA
 0002:00007014 00000004H .rtc$IAA                DATA
 0002:00007018 00000004H .rtc$IZZ                DATA
 0002:0000701c 00000004H .rtc$TAA                DATA
 0002:00007020 00000004H .rtc$TZZ                DATA
 0002:00007028 00000864H .xdata$x                DATA
 0002:00007890 0000004eH .edata                  DATA
 0002:000078e0 00000028H .idata$2                DATA
 0002:00007908 00000014H .idata$3                DATA
 0002:0000791c 00000174H .idata$4                DATA
 0002:00007a90 00000b18H .idata$6                DATA
 0003:00000000 000015f4H .data                   DATA
 0003:000015f8 00000374H .data$r                 DATA
 0003:00001980 0000220cH .bss                    DATA
 0004:00000000 00000058H .rsrc$01                DATA
 0004:00000060 00000180H .rsrc$02                DATA

  Address         Publics by Value              Rva+Base       Lib:Object

 0000:00000000       ___guard_fids_count        00000000     <absolute>
 0000:00000000       __except_list              00000000     <absolute>
 0000:00000000       ___guard_flags             00000000     <absolute>
 0000:00000000       ___guard_fids_table        00000000     <absolute>
 0000:0000000d       ___safe_se_handler_count   0000000d     <absolute>
 0000:00000000       ___ImageBase               10000000     <linker-defined>
 0001:00000170       ?New@?$Factory@VFunctionTemplate@v8@@@imp@Nan@@SA?AV?$Local@VFunctionTemplate@v8@@@v8@@P6AXABV?$FunctionCallbackInfo@VValue@v8@@@3@@ZV?$Local@VValue@v8@@@5@V?$Local@VSignature@v8@@@5@@Z 10001170 f i main.obj
 0001:00000290       ?Log@?A0x418bd1fd@@YAXABV?$FunctionCallbackInfo@VValue@v8@@@Nan@@@Z 10001290 f   main.obj
 0001:000003c0       ?Init@?A0x418bd1fd@@YAXV?$Local@VObject@v8@@@v8@@@Z 100013c0 f   main.obj
 0001:00000480       __register_nslog           10001480 f   main.obj
 0001:00000490       ??1?$basic_string@DU?$char_traits@D@std@@V?$allocator@D@2@@std@@QAE@XZ 10001490 f i main.obj
 0001:000004c0       ?assign@?$basic_string@DU?$char_traits@D@std@@V?$allocator@D@2@@std@@QAEAAV12@ABV12@II@Z 100014c0 f i main.obj
 0001:000005d0       ?_Tidy@?$basic_string@DU?$char_traits@D@std@@V?$allocator@D@2@@std@@QAEX_NI@Z 100015d0 f i main.obj
 0001:00000620       ?assign@?$basic_string@DU?$char_traits@D@std@@V?$allocator@D@2@@std@@QAEAAV12@PBDI@Z 10001620 f i main.obj
 0001:00000720       ?erase@?$basic_string@DU?$char_traits@D@std@@V?$allocator@D@2@@std@@QAEAAV12@II@Z 10001720 f i main.obj
 0001:000007c0       ?_Grow@?$basic_string@DU?$char_traits@D@std@@V?$allocator@D@2@@std@@QAE_NI_N@Z 100017c0 f i main.obj
 0001:00000870       ?_Copy@?$basic_string@DU?$char_traits@D@std@@V?$allocator@D@2@@std@@QAEXII@Z 10001870 f i main.obj
 0001:00000930       ?what@exception@stdext@@UBEPBDXZ 10001930 f i nslog_win.obj
 0001:00000940       ?_Raise@exception@stdext@@QBEXXZ 10001940 f i nslog_win.obj
 0001:00000970       ?_Doraise@exception@stdext@@MBEXXZ 10001970 f i nslog_win.obj
 0001:00000970       ?_Lock@?$basic_streambuf@DU?$char_traits@D@std@@@std@@UAEXXZ 10001970 f i libcpmt:cout.obj
 0001:00000970       ?_Unlock@?$basic_streambuf@DU?$char_traits@D@std@@@std@@UAEXXZ 10001970 f i libcpmt:cout.obj
 0001:00000980       ??_G_System_error@std@@UAEPAXI@Z 10001980 f i nslog_win.obj
 0001:00000980       ??_Eruntime_error@std@@UAEPAXI@Z 10001980 f i * CIL library *:* CIL module *
 0001:00000980       ??_Efailure@ios_base@std@@UAEPAXI@Z 10001980 f i * CIL library *:* CIL module *
 0001:00000980       ??_Gruntime_error@std@@UAEPAXI@Z 10001980 f i nslog_win.obj
 0001:00000980       ??_Gfailure@ios_base@std@@UAEPAXI@Z 10001980 f i nslog_win.obj
 0001:00000980       ??_Eexception@stdext@@UAEPAXI@Z 10001980 f i * CIL library *:* CIL module *
 0001:00000980       ??_Gexception@stdext@@UAEPAXI@Z 10001980 f i nslog_win.obj
 0001:00000980       ??_E_System_error@std@@UAEPAXI@Z 10001980 f i * CIL library *:* CIL module *
 0001:000009a0       ??0_Locinfo@std@@QAE@PBD@Z 100019a0 f i nslog_win.obj
 0001:00000a20       ??1_Locinfo@std@@QAE@XZ    10001a20 f i nslog_win.obj
 0001:00000ac0       ??_G_Facet_base@std@@UAEPAXI@Z 10001ac0 f i nslog_win.obj
 0001:00000ac0       ??_E_Facet_base@std@@UAEPAXI@Z 10001ac0 f i * CIL library *:* CIL module *
 0001:00000ae0       ??Bid@locale@std@@QAEIXZ   10001ae0 f i nslog_win.obj
 0001:00000b20       ?_Incref@facet@locale@std@@UAEXXZ 10001b20 f i nslog_win.obj
 0001:00000b30       ?_Decref@facet@locale@std@@UAEPAV_Facet_base@3@XZ 10001b30 f i nslog_win.obj
 0001:00000b50       ??1locale@std@@QAE@XZ      10001b50 f i nslog_win.obj
 0001:00000b70       ?c_str@locale@std@@QBEPBDXZ 10001b70 f i nslog_win.obj
 0001:00000b90       ?_Getfacet@locale@std@@QBEPBVfacet@12@I@Z 10001b90 f i nslog_win.obj
 0001:00000bd0       ?_Getcat@?$ctype@D@std@@SAIPAPBVfacet@locale@2@PBV42@@Z 10001bd0 f i nslog_win.obj
 0001:00000c70       ?do_tolower@?$ctype@D@std@@MBEDD@Z 10001c70 f i nslog_win.obj
 0001:00000c90       ?do_tolower@?$ctype@D@std@@MBEPBDPADPBD@Z 10001c90 f i nslog_win.obj
 0001:00000cd0       ?do_toupper@?$ctype@D@std@@MBEDD@Z 10001cd0 f i nslog_win.obj
 0001:00000cf0       ?do_toupper@?$ctype@D@std@@MBEPBDPADPBD@Z 10001cf0 f i nslog_win.obj
 0001:00000d30       ?do_widen@?$ctype@D@std@@MBEDD@Z 10001d30 f i nslog_win.obj
 0001:00000d40       ?do_widen@?$ctype@D@std@@MBEPBDPBD0PAD@Z 10001d40 f i nslog_win.obj
 0001:00000d60       ?do_narrow@?$ctype@D@std@@MBEDDD@Z 10001d60 f i nslog_win.obj
 0001:00000d70       ?do_narrow@?$ctype@D@std@@MBEPBDPBD0DPAD@Z 10001d70 f i nslog_win.obj
 0001:00000d90       ??_G?$ctype@D@std@@MAEPAXI@Z 10001d90 f i nslog_win.obj
 0001:00000d90       ??_E?$ctype@D@std@@MAEPAXI@Z 10001d90 f i * CIL library *:* CIL module *
 0001:00000de0       ?_Makestr@_System_error@std@@CA?AV?$basic_string@DU?$char_traits@D@std@@V?$allocator@D@2@@2@Verror_code@2@V32@@Z 10001de0 f i nslog_win.obj
 0001:00000ea0       ??0_System_error@std@@IAE@Verror_code@1@ABV?$basic_string@DU?$char_traits@D@std@@V?$allocator@D@2@@1@@Z 10001ea0 f i nslog_win.obj
 0001:00000f40       ??0failure@ios_base@std@@QAE@PBDABVerror_code@2@@Z 10001f40 f i nslog_win.obj
 0001:00000ff0       ?clear@ios_base@std@@QAEXH_N@Z 10001ff0 f i nslog_win.obj
 0001:00001070       ?append@?$basic_string@DU?$char_traits@D@std@@V?$allocator@D@2@@std@@QAEAAV12@ABV12@II@Z 10002070 f i nslog_win.obj
 0001:00001170       ?append@?$basic_string@DU?$char_traits@D@std@@V?$allocator@D@2@@std@@QAEAAV12@PBDI@Z 10002170 f i nslog_win.obj
 0001:000012a0       ?widen@?$basic_ios@DU?$char_traits@D@std@@@std@@QBEDD@Z 100022a0 f i nslog_win.obj
 0001:000012f0       ?flush@?$basic_ostream@DU?$char_traits@D@std@@@std@@QAEAAV12@XZ 100022f0 f i nslog_win.obj
 0001:000013e0       ??0sentry@?$basic_ostream@DU?$char_traits@D@std@@@std@@QAE@AAV12@@Z 100023e0 f i nslog_win.obj
 0001:00001440       ?_Osfx@?$basic_ostream@DU?$char_traits@D@std@@@std@@QAEXXZ 10002440 f i nslog_win.obj
 0001:00001500       ??$use_facet@V?$ctype@D@std@@@std@@YAABV?$ctype@D@0@ABVlocale@0@@Z 10002500 f i nslog_win.obj
 0001:000015f0       ??$?6DU?$char_traits@D@std@@V?$allocator@D@1@@std@@YAAAV?$basic_ostream@DU?$char_traits@D@std@@@0@AAV10@ABV?$basic_string@DU?$char_traits@D@std@@V?$allocator@D@2@@0@@Z 100025f0 f i nslog_win.obj
 0001:00001860       ?put@?$basic_ostream@DU?$char_traits@D@std@@@std@@QAEAAV12@D@Z 10002860 f i nslog_win.obj
 0001:00001997       ??0bad_alloc@std@@QAE@ABV01@@Z 10002997 f i libcpmt:xthrow.obj
 0001:000019b2       ??0length_error@std@@QAE@ABV01@@Z 100029b2 f i libcpmt:xthrow.obj
 0001:000019cd       ??0logic_error@std@@QAE@ABV01@@Z 100029cd f i libcpmt:xthrow.obj
 0001:000019e8       ??0out_of_range@std@@QAE@ABV01@@Z 100029e8 f i libcpmt:xthrow.obj
 0001:00001a03       ??1bad_alloc@std@@UAE@XZ   10002a03 f i libcpmt:xthrow.obj
 0001:00001a0e       ??1out_of_range@std@@UAE@XZ 10002a0e f i libcpmt:xthrow.obj
 0001:00001a0e       ??1length_error@std@@UAE@XZ 10002a0e f i libcpmt:xthrow.obj
 0001:00001a13       ??_Gbad_alloc@std@@UAEPAXI@Z 10002a13 f i libcpmt:xthrow.obj
 0001:00001a13       ??_Ebad_alloc@std@@UAEPAXI@Z 10002a13 f i libcpmt:xthrow.obj
 0001:00001a38       ??_Glength_error@std@@UAEPAXI@Z 10002a38 f i libcpmt:xthrow.obj
 0001:00001a38       ??_Gout_of_range@std@@UAEPAXI@Z 10002a38 f i libcpmt:xthrow.obj
 0001:00001a38       ??_Eout_of_range@std@@UAEPAXI@Z 10002a38 f i libcpmt:xthrow.obj
 0001:00001a38       ??_Glogic_error@std@@UAEPAXI@Z 10002a38 f i libcpmt:xthrow.obj
 0001:00001a38       ??_Elogic_error@std@@UAEPAXI@Z 10002a38 f i libcpmt:xthrow.obj
 0001:00001a38       ??_Elength_error@std@@UAEPAXI@Z 10002a38 f i libcpmt:xthrow.obj
 0001:00001a57       ?_Xbad_alloc@std@@YAXXZ    10002a57 f   libcpmt:xthrow.obj
 0001:00001a88       ?_Xlength_error@std@@YAXPBD@Z 10002a88 f   libcpmt:xthrow.obj
 0001:00001ab6       ?_Xout_of_range@std@@YAXPBD@Z 10002ab6 f   libcpmt:xthrow.obj
 0001:00001ae4       ??0_Locimp@locale@std@@AAE@_N@Z 10002ae4 f i libcpmt:locale0.obj
 0001:00001b21       ??1_Fac_node@std@@QAE@XZ   10002b21 f i libcpmt:locale0.obj
 0001:00001b36       ??1_Fac_tidy_reg_t@std@@QAE@XZ 10002b36 f i libcpmt:locale0.obj
 0001:00001b5a       ??1_Locimp@locale@std@@MAE@XZ 10002b5a f i libcpmt:locale0.obj
 0001:00001b85       ??4?$_Yarn@D@std@@QAEAAV01@PBD@Z 10002b85 f i libcpmt:locale0.obj
 0001:00001bd9       ??_G_Locimp@locale@std@@MAEPAXI@Z 10002bd9 f i libcpmt:locale0.obj
 0001:00001bd9       ??_E_Locimp@locale@std@@MAEPAXI@Z 10002bd9 f i libcpmt:locale0.obj
 0001:00001bf8       ?_Facet_Register@std@@YAXPAV_Facet_base@1@@Z 10002bf8 f   libcpmt:locale0.obj
 0001:00001c20       ?_Getgloballocale@locale@std@@CAPAV_Locimp@12@XZ 10002c20 f   libcpmt:locale0.obj
 0001:00001c26       ?_Init@locale@std@@CAPAV_Locimp@12@_N@Z 10002c26 f   libcpmt:locale0.obj
 0001:00001ca2       ?_Locimp_dtor@_Locimp@locale@std@@CAXPAV123@@Z 10002ca2 f   libcpmt:locale0.obj
 0001:00001cfb       ?_Locinfo_ctor@_Locinfo@std@@SAXPAV12@PBD@Z 10002cfb f   libcpmt:locale0.obj
 0001:00001d46       ?_Locinfo_dtor@_Locinfo@std@@SAXPAV12@@Z 10002d46 f   libcpmt:locale0.obj
 0001:00001d68       ?_New_Locimp@_Locimp@locale@std@@CAPAV123@_N@Z 10002d68 f   libcpmt:locale0.obj
 0001:00001d87       ?_Setgloballocale@locale@std@@CAXPAX@Z 10002d87 f   libcpmt:locale0.obj
 0001:00001daf       __Deletegloballocale       10002daf f   libcpmt:locale0.obj
 0001:00001dfa       ??$_Fgetc@D@std@@YA_NAADPAU_iobuf@@@Z 10002dfa f i libcpmt:cout.obj
 0001:00001e1a       ??$_Fputc@D@std@@YA_NDPAU_iobuf@@@Z 10002e1a f i libcpmt:cout.obj
 0001:00001e38       ??$_Ungetc@D@std@@YA_NABDPAU_iobuf@@@Z 10002e38 f i libcpmt:cout.obj
 0001:00001e56       ??$use_facet@V?$codecvt@DDH@std@@@std@@YAABV?$codecvt@DDH@0@ABVlocale@0@@Z 10002e56 f i libcpmt:cout.obj
 0001:00001eef       ??0?$basic_ostream@DU?$char_traits@D@std@@@std@@QAE@PAV?$basic_streambuf@DU?$char_traits@D@std@@@1@_N@Z 10002eef f i libcpmt:cout.obj
 0001:00001f56       ??0?$basic_streambuf@DU?$char_traits@D@std@@@std@@IAE@XZ 10002f56 f i libcpmt:cout.obj
 0001:00001f8b       ??0_Init_cout@std@@QAE@XZ  10002f8b f i libcpmt:cout.obj
 0001:00001fe4       ??1?$basic_filebuf@DU?$char_traits@D@std@@@std@@UAE@XZ 10002fe4 f i libcpmt:cout.obj
 0001:0000200d       ??1?$basic_ios@DU?$char_traits@D@std@@@std@@UAE@XZ 1000300d f i libcpmt:cout.obj
 0001:0000201b       ??1?$basic_streambuf@DU?$char_traits@D@std@@@std@@UAE@XZ 1000301b f i libcpmt:cout.obj
 0001:00002039       ??_D?$basic_ostream@DU?$char_traits@D@std@@@std@@QAEXXZ 10003039 f i libcpmt:cout.obj
 0001:00002065       ??_E?$basic_ostream@DU?$char_traits@D@std@@@std@@$4PPPPPPPM@A@AEPAXI@Z 10003065 f i libcpmt:cout.obj
 0001:0000206d       ??_G?$basic_filebuf@DU?$char_traits@D@std@@@std@@UAEPAXI@Z 1000306d f i libcpmt:cout.obj
 0001:0000206d       ??_E?$basic_filebuf@DU?$char_traits@D@std@@@std@@UAEPAXI@Z 1000306d f i libcpmt:cout.obj
 0001:0000208c       ??_G?$basic_ios@DU?$char_traits@D@std@@@std@@UAEPAXI@Z 1000308c f i libcpmt:cout.obj
 0001:0000208c       ??_E?$basic_ios@DU?$char_traits@D@std@@@std@@UAEPAXI@Z 1000308c f i libcpmt:cout.obj
 0001:0000208c       ??_Gios_base@std@@UAEPAXI@Z 1000308c f i libcpmt:cout.obj
 0001:0000208c       ??_Eios_base@std@@UAEPAXI@Z 1000308c f i libcpmt:cout.obj
 0001:000020b3       ??_E?$basic_ostream@DU?$char_traits@D@std@@@std@@UAEPAXI@Z 100030b3 f i libcpmt:cout.obj
 0001:000020b3       ??_G?$basic_ostream@DU?$char_traits@D@std@@@std@@UAEPAXI@Z 100030b3 f i libcpmt:cout.obj
 0001:000020d5       ??_E?$basic_streambuf@DU?$char_traits@D@std@@@std@@UAEPAXI@Z 100030d5 f i libcpmt:cout.obj
 0001:000020d5       ??_G?$basic_streambuf@DU?$char_traits@D@std@@@std@@UAEPAXI@Z 100030d5 f i libcpmt:cout.obj
 0001:000020f4       ??_E?$codecvt@DDH@std@@MAEPAXI@Z 100030f4 f i libcpmt:cout.obj
 0001:000020f4       ??_G?$codecvt@DDH@std@@MAEPAXI@Z 100030f4 f i libcpmt:cout.obj
 0001:00002114       ?_Chassign@?$basic_string@DU?$char_traits@D@std@@V?$allocator@D@2@@std@@QAEXIID@Z 10003114 f i libcpmt:cout.obj
 0001:00002156       ?_Endwrite@?$basic_filebuf@DU?$char_traits@D@std@@@std@@IAE_NXZ 10003156 f i libcpmt:cout.obj
 0001:0000224f       ?_Getcat@?$codecvt@DDH@std@@SAIPAPBVfacet@locale@2@PBV42@@Z 1000324f f i libcpmt:cout.obj
 0001:000022b7       ?_Init@?$basic_filebuf@DU?$char_traits@D@std@@@std@@IAEXPAU_iobuf@@W4_Initfl@12@@Z 100032b7 f i libcpmt:cout.obj
 0001:00002303       ?_Init@?$basic_streambuf@DU?$char_traits@D@std@@@std@@IAEXXZ 10003303 f i libcpmt:cout.obj
 0001:00002347       ?_Init@ios_base@std@@IAEXXZ 10003347 f i libcpmt:cout.obj
 0001:0000239e       ?_Initcvt@?$basic_filebuf@DU?$char_traits@D@std@@@std@@IAEXPBV?$codecvt@DDH@2@@Z 1000339e f i libcpmt:cout.obj
 0001:000023c9       ?_Lock@?$basic_filebuf@DU?$char_traits@D@std@@@std@@UAEXXZ 100033c9 f i libcpmt:cout.obj
 0001:000023d9       ?_Reset_back@?$basic_filebuf@DU?$char_traits@D@std@@@std@@AAEXXZ 100033d9 f i libcpmt:cout.obj
 0001:000023fc       ?_Set_back@?$basic_filebuf@DU?$char_traits@D@std@@@std@@AAEXXZ 100033fc f i libcpmt:cout.obj
 0001:00002432       ?_Unlock@?$basic_filebuf@DU?$char_traits@D@std@@@std@@UAEXXZ 10003432 f i libcpmt:cout.obj
 0001:00002442       ?append@?$basic_string@DU?$char_traits@D@std@@V?$allocator@D@2@@std@@QAEAAV12@ID@Z 10003442 f i libcpmt:cout.obj
 0001:000024a3       ?assign@?$basic_string@DU?$char_traits@D@std@@V?$allocator@D@2@@std@@QAEAAV12@ID@Z 100034a3 f i libcpmt:cout.obj
 0001:000024f1       ?close@?$basic_filebuf@DU?$char_traits@D@std@@@std@@QAEPAV12@XZ 100034f1 f i libcpmt:cout.obj
 0001:00002547       ?do_always_noconv@?$codecvt@DDH@std@@MBE_NXZ 10003547 f i libcpmt:cout.obj
 0001:0000254a       ?do_out@?$codecvt@DDH@std@@MBEHAAHPBD1AAPBDPAD3AAPAD@Z 1000354a f i libcpmt:cout.obj
 0001:0000254a       ?do_in@?$codecvt@DDH@std@@MBEHAAHPBD1AAPBDPAD3AAPAD@Z 1000354a f i libcpmt:cout.obj
 0001:00002564       ?do_length@?$codecvt@DDH@std@@MBEHAAHPBD1I@Z 10003564 f i libcpmt:cout.obj
 0001:0000257c       ?do_max_length@codecvt_base@std@@MBEHXZ 1000357c f i libcpmt:cout.obj
 0001:0000257c       ?do_encoding@codecvt_base@std@@MBEHXZ 1000357c f i libcpmt:cout.obj
 0001:00002580       ?do_unshift@?$codecvt@DDH@std@@MBEHAAHPAD1AAPAD@Z 10003580 f i libcpmt:cout.obj
 0001:00002591       ?imbue@?$basic_filebuf@DU?$char_traits@D@std@@@std@@MAEXABVlocale@2@@Z 10003591 f i libcpmt:cout.obj
 0001:000025ad       ?imbue@?$basic_streambuf@DU?$char_traits@D@std@@@std@@MAEXABVlocale@2@@Z 100035ad f i libcpmt:cout.obj
 0001:000025b0       ?init@?$basic_ios@DU?$char_traits@D@std@@@std@@IAEXPAV?$basic_streambuf@DU?$char_traits@D@std@@@2@_N@Z 100035b0 f i libcpmt:cout.obj
 0001:000025f9       ?overflow@?$basic_filebuf@DU?$char_traits@D@std@@@std@@MAEHH@Z 100035f9 f i libcpmt:cout.obj
 0001:00002786       ?overflow@?$basic_streambuf@DU?$char_traits@D@std@@@std@@MAEHH@Z 10003786 f i libcpmt:cout.obj
 0001:00002786       ?pbackfail@?$basic_streambuf@DU?$char_traits@D@std@@@std@@MAEHH@Z 10003786 f i libcpmt:cout.obj
 0001:0000278c       ?pbackfail@?$basic_filebuf@DU?$char_traits@D@std@@@std@@MAEHH@Z 1000378c f i libcpmt:cout.obj
 0001:00002810       ?seekoff@?$basic_filebuf@DU?$char_traits@D@std@@@std@@MAE?AV?$fpos@H@2@_JHH@Z 10003810 f i libcpmt:cout.obj
 0001:000028cb       ?seekoff@?$basic_streambuf@DU?$char_traits@D@std@@@std@@MAE?AV?$fpos@H@2@_JHH@Z 100038cb f i libcpmt:cout.obj
 0001:000028f1       ?seekpos@?$basic_filebuf@DU?$char_traits@D@std@@@std@@MAE?AV?$fpos@H@2@V32@H@Z 100038f1 f i libcpmt:cout.obj
 0001:000029a9       ?seekpos@?$basic_streambuf@DU?$char_traits@D@std@@@std@@MAE?AV?$fpos@H@2@V32@H@Z 100039a9 f i libcpmt:cout.obj
 0001:000029cf       ?setbuf@?$basic_filebuf@DU?$char_traits@D@std@@@std@@MAEPAV?$basic_streambuf@DU?$char_traits@D@std@@@2@PAD_J@Z 100039cf f i libcpmt:cout.obj
 0001:00002a1d       ?setbuf@?$basic_streambuf@DU?$char_traits@D@std@@@std@@MAEPAV12@PAD_J@Z 10003a1d f i libcpmt:cout.obj
 0001:00002a22       ?showmanyc@?$basic_streambuf@DU?$char_traits@D@std@@@std@@MAE_JXZ 10003a22 f i libcpmt:cout.obj
 0001:00002a27       ?sync@?$basic_filebuf@DU?$char_traits@D@std@@@std@@MAEHXZ 10003a27 f i libcpmt:cout.obj
 0001:00002a52       ?uflow@?$basic_filebuf@DU?$char_traits@D@std@@@std@@MAEHXZ 10003a52 f i libcpmt:cout.obj
 0001:00002be2       ?uflow@?$basic_streambuf@DU?$char_traits@D@std@@@std@@MAEHXZ 10003be2 f i libcpmt:cout.obj
 0001:00002c07       ?underflow@?$basic_filebuf@DU?$char_traits@D@std@@@std@@MAEHXZ 10003c07 f i libcpmt:cout.obj
 0001:00002c41       ?underflow@?$basic_streambuf@DU?$char_traits@D@std@@@std@@MAEHXZ 10003c41 f i libcpmt:cout.obj
 0001:00002c45       ?xsgetn@?$basic_streambuf@DU?$char_traits@D@std@@@std@@MAE_JPAD_J@Z 10003c45 f i libcpmt:cout.obj
 0001:00002d33       ?xsputn@?$basic_streambuf@DU?$char_traits@D@std@@@std@@MAE_JPBD_J@Z 10003d33 f i libcpmt:cout.obj
 0001:00002e22       ??0_Init_locks@std@@QAE@XZ 10003e22 f   libcpmt:xlock.obj
 0001:00002e50       ??0_Lockit@std@@QAE@H@Z    10003e50 f   libcpmt:xlock.obj
 0001:00002e83       ??1_Init_locks@std@@QAE@XZ 10003e83 f   libcpmt:xlock.obj
 0001:00002eab       ??1_Lockit@std@@QAE@XZ     10003eab f   libcpmt:xlock.obj
 0001:00002ecf       __Getctype                 10003ecf f   libcpmt:_tolower.obj
 0001:00002f3b       __Tolower                  10003f3b f   libcpmt:_tolower.obj
 0001:0000303a       __Toupper                  1000403a f   libcpmt:_toupper.obj
 0001:00003139       ??1_Init_atexit@@QAE@XZ    10004139 f i libcpmt:iosptrs.obj
 0001:00003162       ?_Atexit@@YAXP6AXXZ@Z      10004162 f   libcpmt:iosptrs.obj
 0001:00003190       ?_Addstd@ios_base@std@@SAXPAV12@@Z 10004190 f   libcpmt:ios.obj
 0001:000031e1       ?_Callfns@ios_base@std@@AAEXW4event@12@@Z 100041e1 f i libcpmt:ios.obj
 0001:00003206       ?_Ios_base_dtor@ios_base@std@@CAXPAV12@@Z 10004206 f   libcpmt:ios.obj
 0001:00003243       ?_Tidy@ios_base@std@@AAEXXZ 10004243 f i libcpmt:ios.obj
 0001:00003285       __Mtxdst                   10004285 f   libcpmt:xmtx.obj
 0001:00003293       __Mtxinit                  10004293 f   libcpmt:xmtx.obj
 0001:000032aa       __Mtxlock                  100042aa f   libcpmt:xmtx.obj
 0001:000032b8       __Mtxunlock                100042b8 f   libcpmt:xmtx.obj
 0001:000032c6       @__security_check_cookie@4 100042c6 f   LIBCMT:secchk.obj
 0001:000032e0       _memmove                   100042e0 f   LIBCMT:memmove.obj
 0001:00003924       ___onexitinit              10004924 f   LIBCMT:onexit.obj
 0001:00003953       __onexit                   10004953 f   LIBCMT:onexit.obj
 0001:00003a4f       _atexit                    10004a4f f   LIBCMT:onexit.obj
 0001:00003a64       __purecall                 10004a64 f   LIBCMT:purevirt.obj
 0001:00003a86       ??3@YAXPAX@Z               10004a86 f   LIBCMT:delete.obj
 0001:00003a8b       ??2@YAPAXI@Z               10004a8b f   LIBCMT:new.obj
 0001:00003adc       __set_abort_behavior       10004adc f   LIBCMT:abort.obj
 0001:00003afb       _abort                     10004afb f   LIBCMT:abort.obj
 0001:00003b3e       __call_reportfault         10004b3e f   LIBCMT:invarg.obj
 0001:00003c63       __initp_misc_invarg        10004c63 f   LIBCMT:invarg.obj
 0001:00003c70       __invalid_parameter        10004c70 f   LIBCMT:invarg.obj
 0001:00003c9b       __invalid_parameter_noinfo 10004c9b f   LIBCMT:invarg.obj
 0001:00003cab       __invoke_watson            10004cab f   LIBCMT:invarg.obj
 0001:00003cd6       _free                      10004cd6 f   LIBCMT:free.obj
 0001:00003d0e       ??_V@YAXPAX@Z              10004d0e f   LIBCMT:delete2.obj
 0001:00003d13       ??0_LocaleUpdate@@QAE@PAUlocaleinfo_struct@@@Z 10004d13 f i LIBCMT:stricmp.obj
 0001:00003d9b       __CRT_INIT@12              10004d9b f   LIBCMT:dllcrt0.obj
 0001:00003f0d       __DllMainCRTStartup@12     10004f0d f   LIBCMT:dllcrt0.obj
 0001:0000403e       ___DllXcptFilter           1000503e f   LIBCMT:dllcrt0.obj
 0001:00004070       _memcpy                    10005070 f   LIBCMT:memcpy.obj
 0001:000046c0       _strlen                    100056c0 f   LIBCMT:strlen.obj
 0001:0000474b       __CxxThrowException@8      1000574b f   LIBCMT:throw.obj
 0001:000047ae       __EH_epilog3               100057ae f   LIBCMT:ehprolg3.obj
 0001:000047c2       __EH_epilog3_GS            100057c2 f   LIBCMT:ehprolg3.obj
 0001:000047d1       __EH_prolog3               100057d1 f   LIBCMT:ehprolg3.obj
 0001:00004804       __EH_prolog3_GS            10005804 f   LIBCMT:ehprolg3.obj
 0001:0000483a       __EH_prolog3_catch         1000583a f   LIBCMT:ehprolg3.obj
 0001:00004940       ?_CallCatchBlock2@@YAPAXPAUEHRegistrationNode@@PBU_s_FuncInfo@@PAXHK@Z 10005940 f   LIBCMT:_trnsctrl_.obj
 0001:000049a0       ?_CallMemberFunction1@@YGXPAX00@Z 100059a0 f   LIBCMT:_trnsctrl_.obj
 0001:000049a0       ?_CallMemberFunction2@@YGXPAX00H@Z 100059a0 f   LIBCMT:_trnsctrl_.obj
 0001:000049a0       ?_CallMemberFunction0@@YGXPAX0@Z 100059a0 f   LIBCMT:_trnsctrl_.obj
 0001:000049a7       ?_CallSETranslator@@YAHPAUEHExceptionRecord@@PAUEHRegistrationNode@@PAX2PBU_s_FuncInfo@@H1@Z 100059a7 f   LIBCMT:_trnsctrl_.obj
 0001:00004a7e       ?_GetRangeOfTrysToCheck@@YAPBU_s_TryBlockMapEntry@@PBU_s_FuncInfo@@HHPAI1@Z 10005a7e f   LIBCMT:_trnsctrl_.obj
 0001:00004afc       ?_JumpToContinuation@@YGXPAXPAUEHRegistrationNode@@@Z 10005afc f   LIBCMT:_trnsctrl_.obj
 0001:00004b2e       ?_UnwindNestedFrames@@YGXPAUEHRegistrationNode@@PAUEHExceptionRecord@@@Z 10005b2e f   LIBCMT:_trnsctrl_.obj
 0001:00004b83       __CreateFrameInfo          10005b83 f   LIBCMT:_trnsctrl_.obj
 0001:00004bad       __FindAndUnlinkFrame       10005bad f   LIBCMT:_trnsctrl_.obj
 0001:00004bfd       __IsExceptionObjectToBeDestroyed 10005bfd f   LIBCMT:_trnsctrl_.obj
 0001:00004c26       ___CxxFrameHandler3        10005c26 f   LIBCMT:_trnsctrl_.obj
 0001:00004c5c       ??1type_info@@UAE@XZ       10005c5c f   LIBCMT:typinfo.obj
 0001:00004c6a       ??8type_info@@QBE_NABV0@@Z 10005c6a f   LIBCMT:typinfo.obj
 0001:00004c88       ??_Gtype_info@@UAEPAXI@Z   10005c88 f i LIBCMT:typinfo.obj
 0001:00004c88       ??_Etype_info@@UAEPAXI@Z   10005c88 f i LIBCMT:typinfo.obj
 0001:00004ca7       __fpmath                   10005ca7 f   LIBCMT:fpinit.obj
 0001:00004cbe       __cfltcvt_init             10005cbe f   LIBCMT:fpinit.obj
 0001:00004d1e       ??0bad_cast@std@@QAE@ABV01@@Z 10005d1e f   LIBCMT:stdexcpt.obj
 0001:00004d39       ??0bad_cast@std@@QAE@PBD@Z 10005d39 f   LIBCMT:stdexcpt.obj
 0001:00004d55       ??0exception@std@@QAE@ABQBD@Z 10005d55 f   LIBCMT:stdexcpt.obj
 0001:00004d7a       ??0exception@std@@QAE@ABQBDH@Z 10005d7a f   LIBCMT:stdexcpt.obj
 0001:00004d95       ??0exception@std@@QAE@ABV01@@Z 10005d95 f   LIBCMT:stdexcpt.obj
 0001:00004db8       ??1exception@std@@UAE@XZ   10005db8 f   LIBCMT:stdexcpt.obj
 0001:00004db8       ??1bad_cast@std@@UAE@XZ    10005db8 f   LIBCMT:stdexcpt.obj
 0001:00004dc3       ??4exception@std@@QAEAAV01@ABV01@@Z 10005dc3 f   LIBCMT:stdexcpt.obj
 0001:00004df6       ??_Ebad_cast@std@@UAEPAXI@Z 10005df6 f i LIBCMT:stdexcpt.obj
 0001:00004df6       ??_Eexception@std@@UAEPAXI@Z 10005df6 f i LIBCMT:stdexcpt.obj
 0001:00004df6       ??_Gexception@std@@UAEPAXI@Z 10005df6 f i LIBCMT:stdexcpt.obj
 0001:00004df6       ??_Gbad_cast@std@@UAEPAXI@Z 10005df6 f i LIBCMT:stdexcpt.obj
 0001:00004e1b       ?_Copy_str@exception@std@@AAEXPBD@Z 10005e1b f   LIBCMT:stdexcpt.obj
 0001:00004e59       ?_Tidy@exception@std@@AAEXXZ 10005e59 f   LIBCMT:stdexcpt.obj
 0001:00004e75       ?what@exception@std@@UBEPBDXZ 10005e75 f   LIBCMT:stdexcpt.obj
 0001:00004e82       _malloc                    10005e82 f   LIBCMT:malloc.obj
 0001:00004f14       _setlocale                 10005f14 f   LIBCMT:setlocal.obj
 0001:000050f8       ___initstdio               100060f8 f   LIBCMT:_file.obj
 0001:0000516b       ___endstdio                1000616b f   LIBCMT:_file.obj
 0001:00005192       ___iob_func                10006192 f   LIBCMT:_file.obj
 0001:00005198       __lock_file                10006198 f   LIBCMT:_file.obj
 0001:000051d7       __lock_file2               100061d7 f   LIBCMT:_file.obj
 0001:00005207       __unlock_file              10006207 f   LIBCMT:_file.obj
 0001:00005241       __unlock_file2             10006241 f   LIBCMT:_file.obj
 0001:0000526e       __fclose_nolock            1000626e f   LIBCMT:fclose.obj
 0001:000052da       _fclose                    100062da f   LIBCMT:fclose.obj
 0001:00005351       __fflush_nolock            10006351 f   LIBCMT:fflush.obj
 0001:00005397       __flush                    10006397 f   LIBCMT:fflush.obj
 0001:000053fb       __flushall                 100063fb f   LIBCMT:fflush.obj
 0001:00005404       _fflush                    10006404 f   LIBCMT:fflush.obj
 0001:00005541       _fgetc                     10006541 f   LIBCMT:fgetc.obj
 0001:0000563a       _fgetpos                   1000663a f   LIBCMT:fgetpos.obj
 0001:0000568f       _fputc                     1000668f f   LIBCMT:fputc.obj
 0001:00005790       _fsetpos                   10006790 f   LIBCMT:fsetpos.obj
 0001:000057c9       __fseeki64                 100067c9 f   LIBCMT:fseeki64.obj
 0001:0000584f       __fseeki64_nolock          1000684f f   LIBCMT:fseeki64.obj
 0001:00005900       __fwrite_nolock            10006900 f   LIBCMT:fwrite.obj
 0001:00005a59       _fwrite                    10006a59 f   LIBCMT:fwrite.obj
 0001:00005adb       _setvbuf                   10006adb f   LIBCMT:setvbuf.obj
 0001:00005be1       __ungetc_nolock            10006be1 f   LIBCMT:ungetc.obj
 0001:00005cc1       _ungetc                    10006cc1 f   LIBCMT:ungetc.obj
 0001:00005d31       _memcpy_s                  10006d31 f   LIBCMT:memcpy_s.obj
 0001:00005db0       _memset                    10006db0 f   LIBCMT:memset.obj
 0001:00005e40       __lock                     10006e40 f   LIBCMT:mlock.obj
 0001:00005e74       __mtdeletelocks            10006e74 f   LIBCMT:mlock.obj
 0001:00005ec8       __mtinitlocknum            10006ec8 f   LIBCMT:mlock.obj
 0001:00005f71       __mtinitlocks              10006f71 f   LIBCMT:mlock.obj
 0001:00005faa       __unlock                   10006faa f   LIBCMT:mlock.obj
 0001:00005fbf       ___pctype_func             10006fbf f   LIBCMT:ctype.obj
 0001:00005fe8       __isdigit_l                10006fe8 f i LIBCMT:_ctype.obj
 0001:0000603a       __islower_l                1000703a f i LIBCMT:_ctype.obj
 0001:0000608c       __isupper_l                1000708c f i LIBCMT:_ctype.obj
 0001:000060de       _isdigit                   100070de f i LIBCMT:_ctype.obj
 0001:00006109       _islower                   10007109 f i LIBCMT:_ctype.obj
 0001:00006134       _isupper                   10007134 f i LIBCMT:_ctype.obj
 0001:0000615f       __wcsdup                   1000715f f   LIBCMT:wcsdup.obj
 0001:000061b2       ____lc_codepage_func       100071b2 f   LIBCMT:initctyp.obj
 0001:000061d8       ____lc_locale_name_func    100071d8 f   LIBCMT:initctyp.obj
 0001:00006200       ___init_ctype              10007200 f   LIBCMT:initctyp.obj
 0001:0000679c       ___crtLCMapStringA         1000779c f   LIBCMT:a_map.obj
 0001:000067e2       __freea                    100077e2 f i LIBCMT:a_map.obj
 0001:00006800       __calloc_crt               10007800 f   LIBCMT:crtheap.obj
 0001:00006848       __malloc_crt               10007848 f   LIBCMT:crtheap.obj
 0001:0000688f       __realloc_crt              1000788f f   LIBCMT:crtheap.obj
 0001:000068e0       _strcmp                    100078e0 f   LIBCMT:strcmp.obj
 0001:00006970       _strcspn                   10007970 f   LIBCMT:strcspn.obj
 0001:000069b6       ___crtFlsAlloc             100079b6 f   LIBCMT:winapisupp.obj
 0001:000069d4       ___crtFlsFree              100079d4 f   LIBCMT:winapisupp.obj
 0001:000069f3       ___crtFlsGetValue          100079f3 f   LIBCMT:winapisupp.obj
 0001:00006a12       ___crtFlsSetValue          10007a12 f   LIBCMT:winapisupp.obj
 0001:00006a34       ___crtInitializeCriticalSectionEx 10007a34 f   LIBCMT:winapisupp.obj
 0001:00006a62       ___crtIsPackagedApp        10007a62 f   LIBCMT:winapisupp.obj
 0001:00006aa2       ___crtLoadWinApiPointers   10007aa2 f   LIBCMT:winapisupp.obj
 0001:00006d2d       ___crtSleep                10007d2d f   LIBCMT:winapisupp.obj
 0001:00006d3b       ___crtTerminateProcess     10007d3b f   LIBCMT:winapisupp.obj
 0001:00006d50       ___crtUnhandledException   10007d50 f   LIBCMT:winapisupp.obj
 0001:00006d66       ___doserrno                10007d66 f   LIBCMT:dosmap.obj
 0001:00006d79       __dosmaperr                10007d79 f   LIBCMT:dosmap.obj
 0001:00006d9a       __errno                    10007d9a f   LIBCMT:dosmap.obj
 0001:00006dad       __get_errno_from_oserr     10007dad f   LIBCMT:dosmap.obj
 0001:00006e48       __ismbblead                10007e48 f   LIBCMT:ismbbyte.obj
 0001:00006e5e       _wcslen                    10007e5e f   LIBCMT:wcslen.obj
 0001:00006e77       __tolower_l                10007e77 f   LIBCMT:tolower.obj
 0001:00006fba       _tolower                   10007fba f   LIBCMT:tolower.obj
 0001:00006ff0       _memchr                    10007ff0 f   LIBCMT:memchr.obj
 0001:000070a0       __allmul                   100080a0 f   LIBCMT:llmul.obj
 0001:000070e0       __aulldiv                  100080e0 f   LIBCMT:ulldiv.obj
 0001:00007148       _memcmp                    10008148 f   LIBCMT:memcmp.obj
 0001:000088c0       _GetTableIndexFromLcid     100098c0 f   LIBCMT:winapinls.obj
 0001:000088f5       _GetTableIndexFromLocaleName 100098f5 f   LIBCMT:winapinls.obj
 0001:00008943       ___crtDownlevelLCIDToLocaleName 10009943 f   LIBCMT:winapinls.obj
 0001:000089bf       ___crtDownlevelLocaleNameToLCID 100099bf f   LIBCMT:winapinls.obj
 0001:000089fd       ___crtEnumSystemLocalesEx  100099fd f   LIBCMT:winapinls.obj
 0001:00008a3a       ___crtGetLocaleInfoEx      10009a3a f   LIBCMT:winapinls.obj
 0001:00008a69       ___crtGetUserDefaultLocaleName 10009a69 f   LIBCMT:winapinls.obj
 0001:00008a94       ___crtIsValidLocaleName    10009a94 f   LIBCMT:winapinls.obj
 0001:00008abf       ___crtLCMapStringEx        10009abf f   LIBCMT:winapinls.obj
 0001:00008b0b       ___wcsnicmp_ascii          10009b0b f   LIBCMT:winapinls.obj
 0001:00008b79       ___crtLCMapStringW         10009b79 f   LIBCMT:w_map.obj
 0001:00008bb0       __CIsqrt                   10009bb0 f   LIBCMT:sqrt.obj
 0001:00008bc4       _sqrt                      10009bc4     LIBCMT:sqrt.obj
 0001:00008c6a       ___raise_securityfailure   10009c6a f   LIBCMT:gs_report.obj
 0001:00008ca7       ___report_gsfailure        10009ca7 f   LIBCMT:gs_report.obj
 0001:00008da2       ___report_rangecheckfailure 10009da2 f   LIBCMT:gs_report.obj
 0001:00008dae       ___report_securityfailure  10009dae f   LIBCMT:gs_report.obj
 0001:00008e7e       ___isa_available_init      10009e7e f   LIBCMT:cpu_disp.obj
 0001:00008ff7       ___crtCorExitProcess       10009ff7 f   LIBCMT:crt0dat.obj
 0001:0000902b       ___crtExitProcess          1000a02b f   LIBCMT:crt0dat.obj
 0001:00009041       ___freeCrtMemory           1000a041 f   LIBCMT:crt0dat.obj
 0001:0000914e       __amsg_exit                1000a14e f   LIBCMT:crt0dat.obj
 0001:0000916a       __cexit                    1000a16a f   LIBCMT:crt0dat.obj
 0001:00009179       __cinit                    1000a179 f   LIBCMT:crt0dat.obj
 0001:000091fd       __exit                     1000a1fd f   LIBCMT:crt0dat.obj
 0001:00009211       __init_pointers            1000a211 f   LIBCMT:crt0dat.obj
 0001:0000927f       __initterm_e               1000a27f f   LIBCMT:crt0dat.obj
 0001:000092a1       __lockexit                 1000a2a1 f   LIBCMT:crt0dat.obj
 0001:000092aa       __unlockexit               1000a2aa f   LIBCMT:crt0dat.obj
 0001:000093e2       __msize                    1000a3e2 f   LIBCMT:msize.obj
 0001:00009420       __SEH_prolog4              1000a420 f   LIBCMT:sehprolg4.obj
 0001:00009465       __SEH_epilog4              1000a465 f   LIBCMT:sehprolg4.obj
 0001:00009480       __except_handler4          1000a480 f   LIBCMT:chandler4.obj
 0001:00009614       ___getlocaleinfo           1000a614 f   LIBCMT:inithelp.obj
 0001:000097ed       __initp_misc_purevirt      1000a7ed f   LIBCMT:inithelp.obj
 0001:000097fa       __decomp                   1000a7fa f   LIBCMT:util.obj
 0001:000098cc       __set_exp                  1000a8cc f   LIBCMT:util.obj
 0001:000098fb       __handle_exc               1000a8fb f   LIBCMT:fpexcept.obj
 0001:00009ad9       __raise_exc                1000aad9 f   LIBCMT:fpexcept.obj
 0001:00009afa       __raise_exc_ex             1000aafa f   LIBCMT:fpexcept.obj
 0001:00009ddf       __set_errno_from_matherr   1000addf f   LIBCMT:fpexcept.obj
 0001:00009e0c       ___set_fpsr_sse2           1000ae0c f   LIBCMT:fpctrl.obj
 0001:00009e82       __clrfp                    1000ae82 f   LIBCMT:fpctrl.obj
 0001:00009e93       __ctrlfp                   1000ae93 f   LIBCMT:fpctrl.obj
 0001:00009ebe       __set_statfp               1000aebe f   LIBCMT:fpctrl.obj
 0001:00009f16       __statfp                   1000af16 f   LIBCMT:fpctrl.obj
 0001:00009f26       __callnewh                 1000af26 f   LIBCMT:handler.obj
 0001:00009f4c       __initp_heap_handler       1000af4c f   LIBCMT:handler.obj
 0001:00009f59       ___get_sigabrt             1000af59 f   LIBCMT:winsig.obj
 0001:00009f66       __initp_misc_winsig        1000af66 f   LIBCMT:winsig.obj
 0001:00009f82       _raise                     1000af82 f   LIBCMT:winsig.obj
 0001:0000a177       __crt_debugger_hook        1000b177 f   LIBCMT:dbghook.obj
 0001:0000a17f       __heap_init                1000b17f f   LIBCMT:heapinit.obj
 0001:0000a194       __heap_term                1000b194 f   LIBCMT:heapinit.obj
 0001:0000a19c       ___addlocaleref            1000b19c f   LIBCMT:localref.obj
 0001:0000a231       ___freetlocinfo            1000b231 f   LIBCMT:localref.obj
 0001:0000a38b       ___removelocaleref         1000b38b f   LIBCMT:localref.obj
 0001:0000a42b       ___updatetlocinfo          1000b42b f   LIBCMT:localref.obj
 0001:0000a4ab       __updatetlocinfoEx_nolock  1000b4ab f   LIBCMT:localref.obj
 0001:0000a4f6       ___initmbctable            1000b4f6 f   LIBCMT:mbctype.obj
 0001:0000a7ad       ___updatetmbcinfo          1000b7ad f   LIBCMT:mbctype.obj
 0001:0000a853       __setmbcp                  1000b853 f   LIBCMT:mbctype.obj
 0001:0000a9fb       __setmbcp_nolock           1000b9fb f   LIBCMT:mbctype.obj
 0001:0000abe6       __freefls@4                1000bbe6 f   LIBCMT:tidtable.obj
 0001:0000ad1b       __freeptd                  1000bd1b f   LIBCMT:tidtable.obj
 0001:0000ad51       __getptd                   1000bd51 f   LIBCMT:tidtable.obj
 0001:0000ad69       __getptd_noexit            1000bd69 f   LIBCMT:tidtable.obj
 0001:0000add8       __initptd                  1000bdd8 f   LIBCMT:tidtable.obj
 0001:0000ae8b       __mtinit                   1000be8b f   LIBCMT:tidtable.obj
 0001:0000af01       __mtterm                   1000bf01 f   LIBCMT:tidtable.obj
 0001:0000af1e       ___init_collate            1000bf1e f   LIBCMT:initcoll.obj
 0001:0000af1e       __matherr                  1000bf1e f   LIBCMT:matherr.obj
 0001:0000af1e       ___init_dummy              1000bf1e f   LIBCMT:wsetloca.obj
 0001:0000af1e       ?sync@?$basic_streambuf@DU?$char_traits@D@std@@@std@@MAEHXZ 1000bf1e f   libcpmt:cout.obj
 0001:0000af21       __locterm                  1000bf21 f   LIBCMT:wsetloca.obj
 0001:0000af73       ___copy_locale_name        1000bf73 f   LIBCMT:wsetloca.obj
 0001:0000afd7       ___lc_lctowcs              1000bfd7 f   LIBCMT:wsetloca.obj
 0001:0000b045       ___lc_wcstolc              1000c045 f   LIBCMT:wsetloca.obj
 0001:0000b19d       __expandlocale             1000c19d f   LIBCMT:wsetloca.obj
 0001:0000b494       __wcscats                  1000c494 f   LIBCMT:wsetloca.obj
 0001:0000b4d3       __wsetlocale               1000c4d3 f   LIBCMT:wsetloca.obj
 0001:0000bdf0       __XcptFilter               1000cdf0 f   LIBCMT:winxfltr.obj
 0001:0000bf4b       ___CppXcptFilter           1000cf4b f   LIBCMT:winxfltr.obj
 0001:0000bf6b       __ioinit                   1000cf6b f   LIBCMT:ioinit.obj
 0001:0000c21f       __ioterm                   1000d21f f   LIBCMT:ioinit.obj
 0001:0000c271       __setargv                  1000d271 f   LIBCMT:stdargv.obj
 0001:0000c4a0       __setenvp                  1000d4a0 f   LIBCMT:stdenvp.obj
 0001:0000c581       ___security_init_cookie    1000d581 f   LIBCMT:gs_support.obj
 0001:0000c61d       _DllMain@12                1000d61d f   LIBCMT:dllmain.obj
 0001:0000c623       ___crtGetEnvironmentStringsA 1000d623 f   LIBCMT:a_env.obj
 0001:0000c6b0       __RTC_Initialize           1000d6b0 f   LIBCMT:initsect.obj
 0001:0000c6d0       __RTC_Terminate            1000d6d0 f   LIBCMT:initsect.obj
 0001:0000c6f0       __CallSettingFrame@12      1000d6f0 f   LIBCMT:lowhelpr.obj
 0001:0000c717       __NLG_Return               1000d717     LIBCMT:lowhelpr.obj
 0001:0000c73c       ?_inconsistency@@YAXXZ     1000d73c f   LIBCMT:hooks.obj
 0001:0000c774       ?terminate@@YAXXZ          1000d774 f   LIBCMT:hooks.obj
 0001:0000c7a8       ?unexpected@@YAXXZ         1000d7a8 f   LIBCMT:hooks.obj
 0001:0000c7bb       __initp_eh_hooks           1000d7bb f   LIBCMT:hooks.obj
 0001:0000c7cc       ___DestructExceptionObject 1000d7cc f   LIBCMT:frame.obj
 0001:0000c857       ??0bad_exception@std@@QAE@ABV01@@Z 1000d857 f i LIBCMT:frame.obj
 0001:0000c872       ??1bad_exception@std@@UAE@XZ 1000d872 f i LIBCMT:frame.obj
 0001:0000c87d       ??_Gbad_exception@std@@UAEPAXI@Z 1000d87d f i LIBCMT:frame.obj
 0001:0000c87d       ??_Ebad_exception@std@@UAEPAXI@Z 1000d87d f i LIBCMT:frame.obj
 0001:0000d0b1       ___AdjustPointer           1000e0b1 f   LIBCMT:frame.obj
 0001:0000d0d6       ___BuildCatchObject        1000e0d6 f   LIBCMT:frame.obj
 0001:0000d164       ___BuildCatchObjectHelper  1000e164 f   LIBCMT:frame.obj
 0001:0000d326       ___FrameUnwindFilter       1000e326 f   LIBCMT:frame.obj
 0001:0000d374       ___FrameUnwindToState      1000e374 f   LIBCMT:frame.obj
 0001:0000d44d       ___InternalCxxFrameHandler 1000e44d f   LIBCMT:frame.obj
 0001:0000d52e       ___TypeMatch               1000e52e f   LIBCMT:frame.obj
 0001:0000d595       ?_Type_info_dtor@type_info@@CAXPAV1@@Z 1000e595 f   LIBCMT:typname.obj
 0001:0000d606       __cfltcvt                  1000e606 f   LIBCMT:cvt.obj
 0001:0000d627       __cfltcvt_l                1000e627 f   LIBCMT:cvt.obj
 0001:0000d6ad       __cftoa_l                  1000e6ad f   LIBCMT:cvt.obj
 0001:0000da09       __cftoe                    1000ea09 f   LIBCMT:cvt.obj
 0001:0000db78       __cftoe_l                  1000eb78 f   LIBCMT:cvt.obj
 0001:0000dd32       __cftof_l                  1000ed32 f   LIBCMT:cvt.obj
 0001:0000ddf3       __cftog_l                  1000edf3 f   LIBCMT:cvt.obj
 0001:0000def2       __cropzeros                1000eef2 f   LIBCMT:cvt.obj
 0001:0000df03       __cropzeros_l              1000ef03 f   LIBCMT:cvt.obj
 0001:0000df83       __fassign                  1000ef83 f   LIBCMT:cvt.obj
 0001:0000df9b       __fassign_l                1000ef9b f   LIBCMT:cvt.obj
 0001:0000dfdd       __forcdecpt                1000efdd f   LIBCMT:cvt.obj
 0001:0000dfee       __forcdecpt_l              1000efee f   LIBCMT:cvt.obj
 0001:0000e062       __positive                 1000f062 f   LIBCMT:cvt.obj
 0001:0000e0a4       __setdefaultprecision      1000f0a4 f   LIBCMT:fp8.obj
 0001:0000e0cb       __initp_misc_cfltcvt_tab   1000f0cb f   LIBCMT:cmiscdat.obj
 0001:0000e0ea       _strcpy_s                  1000f0ea f   LIBCMT:strcpy_s.obj
 0001:0000e13f       __FF_MSGBANNER             1000f13f f   LIBCMT:crt0msg.obj
 0001:0000e178       __GET_RTERRMSG             1000f178 f   LIBCMT:crt0msg.obj
 0001:0000e19c       __NMSG_WRITE               1000f19c f   LIBCMT:crt0msg.obj
 0001:0000e359       __mbstowcs_l_helper        1000f359 f   LIBCMT:mbstowcs.obj
 0001:0000e4ba       __mbstowcs_s_l             1000f4ba f   LIBCMT:mbstowcs.obj
 0001:0000e598       _mbstowcs_s                1000f598 f   LIBCMT:mbstowcs.obj
 0001:0000e5b6       __wcstombs_l_helper        1000f5b6 f   LIBCMT:wcstombs.obj
 0001:0000e81d       __wcstombs_s_l             1000f81d f   LIBCMT:wcstombs.obj
 0001:0000e8e8       __fcloseall                1000f8e8 f   LIBCMT:closeall.obj
 0001:0000e985       __fileno                   1000f985 f   LIBCMT:fileno.obj
 0001:0000e9a9       __close                    1000f9a9 f   LIBCMT:close.obj
 0001:0000ea84       __close_nolock             1000fa84 f   LIBCMT:close.obj
 0001:0000eb1e       __freebuf                  1000fb1e f   LIBCMT:_freebuf.obj
 0001:0000eb4e       __commit                   1000fb4e f   LIBCMT:commit.obj
 0001:0000ec37       __write                    1000fc37 f   LIBCMT:write.obj
 0001:0000ed26       __write_nolock             1000fd26 f   LIBCMT:write.obj
 0001:0000f58b       __filbuf                   1001058b f   LIBCMT:_filbuf.obj
 0001:0000f6ac       __ftelli64                 100106ac f   LIBCMT:ftelli64.obj
 0001:0000f727       __ftelli64_nolock          10010727 f   LIBCMT:ftelli64.obj
 0001:0000fafc       __flsbuf                   10010afc f   LIBCMT:_flsbuf.obj
 0001:0000fc4b       __lseeki64                 10010c4b f   LIBCMT:lseeki64.obj
 0001:0000fd47       __lseeki64_nolock          10010d47 f   LIBCMT:lseeki64.obj
 0001:0000fdba       __getbuf                   10010dba f   LIBCMT:_getbuf.obj
 0001:0000fe00       __VEC_memset               10010e00 f   LIBCMT:p4_memset.obj
 0001:0000fec8       __isctype_l                10010ec8 f   LIBCMT:isctype.obj
 0001:0000ff79       _calloc                    10010f79 f   LIBCMT:calloc.obj
 0001:0000ffb9       _wcscpy_s                  10010fb9 f   LIBCMT:wcscpy_s.obj
 0001:0001010d       ___crtGetStringTypeA       1001110d f   LIBCMT:a_str.obj
 0001:00010150       __alloca_probe_16          10011150 f   LIBCMT:alloca16.obj
 0001:00010166       __alloca_probe_8           10011166     LIBCMT:alloca16.obj
 0001:0001017c       _realloc                   1001117c f   LIBCMT:realloc.obj
 0001:00010227       __calloc_impl              10011227 f   LIBCMT:calloc_impl.obj
 0001:000102a1       __wcsicmp                  100112a1 f   LIBCMT:wcsicmp.obj
 0001:00010334       __wcsicmp_l                10011334 f   LIBCMT:wcsicmp.obj
 0001:0001040f       __isleadbyte_l             1001140f f i LIBCMT:_wctype.obj
 0001:00010449       _isleadbyte                10011449 f i LIBCMT:_wctype.obj
 0001:0001045a       _wcsnlen                   1001145a f   LIBCMT:wcslen_s.obj
 0001:00010480       __trandisp1                10011480 f   LIBCMT:87disp.obj
 0001:000104e7       __trandisp2                100114e7 f   LIBCMT:87disp.obj
 0001:00010573       __rttospopde               10011573     LIBCMT:87disp.obj
 0001:00010578       __rttospop                 10011578     LIBCMT:87disp.obj
 0001:0001057a       __rtnospop                 1001157a     LIBCMT:87disp.obj
 0001:0001057c       __rttosnpop                1001157c     LIBCMT:87disp.obj
 0001:0001057d       __rtnospopde               1001157d     LIBCMT:87disp.obj
 0001:00010584       __rtzeropop                10011584     LIBCMT:87disp.obj
 0001:00010586       __rtzeronpop               10011586     LIBCMT:87disp.obj
 0001:0001058b       __rtonepop                 1001158b     LIBCMT:87disp.obj
 0001:0001058d       __rtonenpop                1001158d     LIBCMT:87disp.obj
 0001:00010592       __tosnan1                  10011592     LIBCMT:87disp.obj
 0001:000105bd       __nosnan2                  100115bd     LIBCMT:87disp.obj
 0001:000105bf       __tosnan2                  100115bf     LIBCMT:87disp.obj
 0001:000105e7       __nan2                     100115e7     LIBCMT:87disp.obj
 0001:00010626       __rtindfpop                10011626     LIBCMT:87disp.obj
 0001:00010628       __rtindfnpop               10011628     LIBCMT:87disp.obj
 0001:00010639       __rttosnpopde              10011639     LIBCMT:87disp.obj
 0001:00010643       __rtchsifneg               10011643     LIBCMT:87disp.obj
 0001:00010650       __startTwoArgErrorHandling 10011650 f   LIBCMT:genexcep.obj
 0001:00010667       __startOneArgErrorHandling 10011667 f   LIBCMT:genexcep.obj
 0001:000106b0       __twoToTOS                 100116b0 f   LIBCMT:common.obj
 0001:000106c5       __load_CW                  100116c5 f   LIBCMT:common.obj
 0001:000106dc       __convertTOStoQNaN         100116dc f   LIBCMT:common.obj
 0001:000106f5       __fload_withFB             100116f5 f   LIBCMT:common.obj
 0001:00010738       __checkTOS_withFB          10011738 f   LIBCMT:common.obj
 0001:0001074e       __fast_exit                1001174e f   LIBCMT:common.obj
 0001:0001075b       __math_exit                1001175b f   LIBCMT:common.obj
 0001:00010785       __check_overflow_exit      10011785 f   LIBCMT:common.obj
 0001:00010799       __check_range_exit         10011799 f   LIBCMT:common.obj
 0001:00010840       __FindPESection            10011840 f   LIBCMT:pesect.obj
 0001:00010890       __IsNonwritableInCurrentImage 10011890 f   LIBCMT:pesect.obj
 0001:00010950       __ValidateImageBase        10011950 f   LIBCMT:pesect.obj
 0001:00010981       __initp_misc_rand_s        10011981 f   LIBCMT:rand_s.obj
 0001:00010990       __local_unwind4            10011990 f   LIBCMT:exsup4.obj
 0001:00010a66       __seh_longjmp_unwind4@4    10011a66 f   LIBCMT:exsup4.obj
 0001:00010a82       @_EH4_CallFilterFunc@8     10011a82 f   LIBCMT:exsup4.obj
 0001:00010a99       @_EH4_TransferToHandler@8  10011a99 f   LIBCMT:exsup4.obj
 0001:00010ab2       @_EH4_GlobalUnwind2@8      10011ab2 f   LIBCMT:exsup4.obj
 0001:00010acb       @_EH4_LocalUnwind@16       10011acb f   LIBCMT:exsup4.obj
 0001:00010ae2       _strncpy_s                 10011ae2 f   LIBCMT:strncpy_s.obj
 0001:00010c6a       ___crtGetLocaleInfoA       10011c6a f   LIBCMT:a_loc.obj
 0001:00010ca4       ___free_lconv_mon          10011ca4 f   LIBCMT:initmon.obj
 0001:00010da0       ___init_monetary           10011da0 f   LIBCMT:initmon.obj
 0001:00011141       ___free_lconv_num          10012141 f   LIBCMT:initnum.obj
 0001:000111a8       ___init_numeric            100121a8 f   LIBCMT:initnum.obj
 0001:000113ae       ___free_lc_time            100123ae f   LIBCMT:inittime.obj
 0001:0001172e       ___init_time               1001272e f   LIBCMT:inittime.obj
 0001:00011f9d       _wcscat_s                  10012f9d f   LIBCMT:wcscat_s.obj
 0001:00012009       _wcscmp                    10013009 f   LIBCMT:wcscmp.obj
 0001:00012047       _wcscspn                   10013047 f   LIBCMT:wcscspn.obj
 0001:00012092       _wcsncmp                   10013092 f   LIBCMT:wcsncmp.obj
 0001:000120c8       _wcsncpy_s                 100130c8 f   LIBCMT:wcsncpy_s.obj
 0001:00012186       _wcspbrk                   10013186 f   LIBCMT:wcspbrk.obj
 0001:0001274f       ___get_qualified_locale    1001374f f   LIBCMT:getqloc.obj
 0001:00012f39       ___get_qualified_locale_downlevel 10013f39 f   LIBCMT:getqloc_downlevel.obj
 0001:00013160       __global_unwind2           10014160 f   LIBCMT:exsup.obj
 0001:000131c5       __local_unwind2            100141c5 f   LIBCMT:exsup.obj
 0001:00013249       __abnormal_termination     10014249 f   LIBCMT:exsup.obj
 0001:0001326c       __NLG_Notify1              1001426c f   LIBCMT:exsup.obj
 0001:00013275       __NLG_Notify               10014275 f   LIBCMT:exsup.obj
 0001:0001328c       __NLG_Dispatch2            1001428c     LIBCMT:exsup.obj
 0001:0001328c       __NLG_Dispatch             1001428c     LIBCMT:exsup.obj
 0001:00013294       __NLG_Call                 10014294 f   LIBCMT:exsup.obj
 0001:00013296       __NLG_Return2              10014296     LIBCMT:exsup.obj
 0001:00013297       ?_ValidateExecute@@YAHP6GHXZ@Z 10014297 f   LIBCMT:validate.obj
 0001:00013297       ?_ValidateRead@@YAHPBXI@Z  10014297 f   LIBCMT:validate.obj
 0001:00013297       ?_ValidateWrite@@YAHPAXI@Z 10014297 f   LIBCMT:validate.obj
 0001:000132b0       _strrchr                   100142b0 f   LIBCMT:strrchr.obj
 0001:000133e7       __fptostr                  100143e7 f   LIBCMT:_fptostr.obj
 0001:00013497       ___crt_atoflt_l            10014497 f   LIBCMT:atodbl.obj
 0001:0001353b       __atodbl_l                 1001453b f   LIBCMT:atodbl.obj
 0001:000135c9       __atoflt_l                 100145c9 f   LIBCMT:atodbl.obj
 0001:000135e1       ___dtold                   100145e1 f   LIBCMT:cfout.obj
 0001:000136a9       __fltout2                  100146a9 f   LIBCMT:cfout.obj
 0001:00013740       __alldvrm                  10014740 f   LIBCMT:lldvrm.obj
 0001:00013820       __aullshr                  10014820 f   LIBCMT:ullshr.obj
 0001:0001383f       __controlfp_s              1001483f f   LIBCMT:contrlfp.obj
 0001:0001389c       __fptrap                   1001489c f   LIBCMT:crt0fp.obj
 0001:000138a5       __set_error_mode           100148a5 f   LIBCMT:errmode.obj
 0001:000138e5       ___crtMessageBoxW          100148e5 f   LIBCMT:crtmboxw.obj
 0001:00013acb       ___lock_fhandle            10014acb f   LIBCMT:osfinfo.obj
 0001:00013b59       __free_osfhnd              10014b59 f   LIBCMT:osfinfo.obj
 0001:00013bdf       __get_osfhandle            10014bdf f   LIBCMT:osfinfo.obj
 0001:00013c46       __unlock_fhandle           10014c46 f   LIBCMT:osfinfo.obj
 0001:00013c6c       __isatty                   10014c6c f   LIBCMT:isatty.obj
 0001:00013cc0       __mbtowc_l                 10014cc0 f   LIBCMT:mbtowc.obj
 0001:00013db5       _mbtowc                    10014db5 f   LIBCMT:mbtowc.obj
 0001:00013dcd       __putwch_nolock            10014dcd f   LIBCMT:putwch.obj
 0001:00013e10       __chkstk                   10014e10 f   LIBCMT:chkstk.obj
 0001:00013e10       __alloca_probe             10014e10 f   LIBCMT:chkstk.obj
 0001:00013e3b       __read                     10014e3b f   LIBCMT:read.obj
 0001:00013f4f       __read_nolock              10014f4f f   LIBCMT:read.obj
 0001:000146e0       __aulldvrm                 100156e0 f   LIBCMT:ulldvrm.obj
 0001:00014775       __towlower_l               10015775 f   LIBCMT:towlower.obj
 0001:00014826       _iswctype                  10015826 f   LIBCMT:iswctype.obj
 0001:0001487c       __87except                 1001587c f   LIBCMT:87except.obj
 0001:00014985       __itow_s                   10015985 f   LIBCMT:xtows.obj
 0001:00014aa1       __wtol                     10015aa1 f   LIBCMT:wtox.obj
 0001:00014ab5       _wcschr                    10015ab5 f   LIBCMT:wcschr.obj
 0001:00014b63       __wcsnicmp                 10015b63 f   LIBCMT:wcsnicmp.obj
 0001:00014c19       __wcsnicmp_l               10015c19 f   LIBCMT:wcsnicmp.obj
 0001:00014d12       __ld12tod                  10015d12 f   LIBCMT:intrncvt.obj
 0001:00015284       __ld12tof                  10016284 f   LIBCMT:intrncvt.obj
 0001:000157f6       ___strgtold12_l            100167f6 f   LIBCMT:strgtold.obj
 0001:00015f9e       _$I10_OUTPUT               10016f9e f   LIBCMT:x10fout.obj
 0001:00016a1b       __control87                10017a1b f i LIBCMT:ieee87.obj
 0001:00016db4       ___termconout              10017db4 f   LIBCMT:initcon.obj
 0001:00016dcb       ___initconout              10017dcb f   LIBCMT:initcon.obj
 0001:00016fcb       _wcstol                    10017fcb f   LIBCMT:wcstol.obj
 0001:00016fe3       ___mtold12                 10017fe3 f   LIBCMT:mantold.obj
 0001:000171c3       __wchartodigit             100181c3 f   LIBCMT:wchtodig.obj
 0001:00017370       _strchr                    10018370 f   LIBCMT:strchr.obj
 0001:000173de       ___from_strstr_to_strchr   100183de     LIBCMT:strchr.obj
 0001:000174a0       ___ascii_strnicmp          100184a0 f   LIBCMT:_strnicm.obj
 0001:00017502       _IsProcessorFeaturePresent@4 10018502 f   kernel32:KERNEL32.dll
 0001:00017508       _RtlUnwind@16              10018508 f   kernel32:KERNEL32.dll
 0002:00000000       __imp__CreateFileW@28      10019000     kernel32:KERNEL32.dll
 0002:00000004       __imp__ReadConsoleW@20     10019004     kernel32:KERNEL32.dll
 0002:00000008       __imp__WriteConsoleW@20    10019008     kernel32:KERNEL32.dll
 0002:0000000c       __imp__SetStdHandle@8      1001900c     kernel32:KERNEL32.dll
 0002:00000010       __imp__OutputDebugStringW@4 10019010     kernel32:KERNEL32.dll
 0002:00000014       __imp__LoadLibraryExW@12   10019014     kernel32:KERNEL32.dll
 0002:00000018       __imp__HeapReAlloc@16      10019018     kernel32:KERNEL32.dll
 0002:0000001c       __imp__SetFilePointerEx@20 1001901c     kernel32:KERNEL32.dll
 0002:00000020       __imp__ReadFile@20         10019020     kernel32:KERNEL32.dll
 0002:00000024       __imp__GetConsoleMode@8    10019024     kernel32:KERNEL32.dll
 0002:00000028       __imp__GetConsoleCP@0      10019028     kernel32:KERNEL32.dll
 0002:0000002c       __imp__FlushFileBuffers@4  1001902c     kernel32:KERNEL32.dll
 0002:00000030       __imp__CloseHandle@4       10019030     kernel32:KERNEL32.dll
 0002:00000034       __imp__GetModuleFileNameW@12 10019034     kernel32:KERNEL32.dll
 0002:00000038       __imp__WriteFile@20        10019038     kernel32:KERNEL32.dll
 0002:0000003c       __imp__FreeEnvironmentStringsW@4 1001903c     kernel32:KERNEL32.dll
 0002:00000040       __imp__GetEnvironmentStringsW@0 10019040     kernel32:KERNEL32.dll
 0002:00000044       __imp__GetSystemTimeAsFileTime@4 10019044     kernel32:KERNEL32.dll
 0002:00000048       __imp__GetCurrentProcessId@0 10019048     kernel32:KERNEL32.dll
 0002:0000004c       __imp__QueryPerformanceCounter@4 1001904c     kernel32:KERNEL32.dll
 0002:00000050       __imp__GetModuleFileNameA@12 10019050     kernel32:KERNEL32.dll
 0002:00000054       __imp__GetFileType@4       10019054     kernel32:KERNEL32.dll
 0002:00000058       __imp__GetStdHandle@4      10019058     kernel32:KERNEL32.dll
 0002:0000005c       __imp__GetOEMCP@0          1001905c     kernel32:KERNEL32.dll
 0002:00000060       __imp__GetACP@0            10019060     kernel32:KERNEL32.dll
 0002:00000064       __imp__IsValidCodePage@4   10019064     kernel32:KERNEL32.dll
 0002:00000068       __imp__GetProcessHeap@0    10019068     kernel32:KERNEL32.dll
 0002:0000006c       __imp__EncodePointer@4     1001906c     kernel32:KERNEL32.dll
 0002:00000070       __imp__DecodePointer@4     10019070     kernel32:KERNEL32.dll
 0002:00000074       __imp__EnterCriticalSection@4 10019074     kernel32:KERNEL32.dll
 0002:00000078       __imp__LeaveCriticalSection@4 10019078     kernel32:KERNEL32.dll
 0002:0000007c       __imp__DeleteCriticalSection@4 1001907c     kernel32:KERNEL32.dll
 0002:00000080       __imp__WideCharToMultiByte@32 10019080     kernel32:KERNEL32.dll
 0002:00000084       __imp__MultiByteToWideChar@24 10019084     kernel32:KERNEL32.dll
 0002:00000088       __imp__GetStringTypeW@16   10019088     kernel32:KERNEL32.dll
 0002:0000008c       __imp__IsProcessorFeaturePresent@4 1001908c     kernel32:KERNEL32.dll
 0002:00000090       __imp__IsDebuggerPresent@0 10019090     kernel32:KERNEL32.dll
 0002:00000094       __imp__GetLastError@0      10019094     kernel32:KERNEL32.dll
 0002:00000098       __imp__HeapFree@12         10019098     kernel32:KERNEL32.dll
 0002:0000009c       __imp__GetCommandLineA@0   1001909c     kernel32:KERNEL32.dll
 0002:000000a0       __imp__GetCurrentThreadId@0 100190a0     kernel32:KERNEL32.dll
 0002:000000a4       __imp__RaiseException@16   100190a4     kernel32:KERNEL32.dll
 0002:000000a8       __imp__RtlUnwind@16        100190a8     kernel32:KERNEL32.dll
 0002:000000ac       __imp__HeapAlloc@12        100190ac     kernel32:KERNEL32.dll
 0002:000000b0       __imp__GetCPInfo@8         100190b0     kernel32:KERNEL32.dll
 0002:000000b4       __imp__UnhandledExceptionFilter@4 100190b4     kernel32:KERNEL32.dll
 0002:000000b8       __imp__SetUnhandledExceptionFilter@4 100190b8     kernel32:KERNEL32.dll
 0002:000000bc       __imp__SetLastError@4      100190bc     kernel32:KERNEL32.dll
 0002:000000c0       __imp__InitializeCriticalSectionAndSpinCount@8 100190c0     kernel32:KERNEL32.dll
 0002:000000c4       __imp__Sleep@4             100190c4     kernel32:KERNEL32.dll
 0002:000000c8       __imp__GetCurrentProcess@0 100190c8     kernel32:KERNEL32.dll
 0002:000000cc       __imp__TerminateProcess@8  100190cc     kernel32:KERNEL32.dll
 0002:000000d0       __imp__TlsAlloc@0          100190d0     kernel32:KERNEL32.dll
 0002:000000d4       __imp__TlsGetValue@4       100190d4     kernel32:KERNEL32.dll
 0002:000000d8       __imp__TlsSetValue@8       100190d8     kernel32:KERNEL32.dll
 0002:000000dc       __imp__TlsFree@4           100190dc     kernel32:KERNEL32.dll
 0002:000000e0       __imp__GetStartupInfoW@4   100190e0     kernel32:KERNEL32.dll
 0002:000000e4       __imp__GetModuleHandleW@4  100190e4     kernel32:KERNEL32.dll
 0002:000000e8       __imp__GetProcAddress@8    100190e8     kernel32:KERNEL32.dll
 0002:000000ec       __imp__LCMapStringW@24     100190ec     kernel32:KERNEL32.dll
 0002:000000f0       __imp__GetLocaleInfoW@16   100190f0     kernel32:KERNEL32.dll
 0002:000000f4       __imp__IsValidLocale@8     100190f4     kernel32:KERNEL32.dll
 0002:000000f8       __imp__GetUserDefaultLCID@0 100190f8     kernel32:KERNEL32.dll
 0002:000000fc       __imp__EnumSystemLocalesW@8 100190fc     kernel32:KERNEL32.dll
 0002:00000100       __imp__ExitProcess@4       10019100     kernel32:KERNEL32.dll
 0002:00000104       __imp__GetModuleHandleExW@12 10019104     kernel32:KERNEL32.dll
 0002:00000108       __imp__HeapSize@12         10019108     kernel32:KERNEL32.dll
 0002:0000010c       \177KERNEL32_NULL_THUNK_DATA 1001910c     kernel32:KERNEL32.dll
 0002:00000110       __imp_?New@External@v8@@SA?AV?$Local@VExternal@v8@@@2@PAVIsolate@2@PAX@Z 10019110     node:node.dll
 0002:00000114       __imp_?Value@External@v8@@QBEPAXXZ 10019114     node:node.dll
 0002:00000118       __imp_?GetCurrent@Isolate@v8@@SAPAV12@XZ 10019118     node:node.dll
 0002:0000011c       __imp_?GetCurrentContext@Isolate@v8@@QAE?AV?$Local@VContext@v8@@@2@XZ 1001911c     node:node.dll
 0002:00000120       __imp_?SetName@Function@v8@@QAEXV?$Local@VString@v8@@@2@@Z 10019120     node:node.dll
 0002:00000124       __imp_?New@ObjectTemplate@v8@@SA?AV?$Local@VObjectTemplate@v8@@@2@PAVIsolate@2@V?$Local@VFunctionTemplate@v8@@@2@@Z 10019124     node:node.dll
 0002:00000128       __imp_?NewInstance@ObjectTemplate@v8@@QAE?AV?$MaybeLocal@VObject@v8@@@2@V?$Local@VContext@v8@@@2@@Z 10019128     node:node.dll
 0002:0000012c       __imp_?SetInternalFieldCount@ObjectTemplate@v8@@QAEXH@Z 1001912c     node:node.dll
 0002:00000130       __imp_?Set@Object@v8@@QAE_NV?$Local@VValue@v8@@@2@0@Z 10019130     node:node.dll
 0002:00000134       __imp_?SetInternalField@Object@v8@@QAEXHV?$Local@VValue@v8@@@2@@Z 10019134     node:node.dll
 0002:00000138       __imp_?SlowGetInternalField@Object@v8@@AAE?AV?$Local@VValue@v8@@@2@H@Z 10019138     node:node.dll
 0002:0000013c       __imp_??0HandleScope@v8@@QAE@PAVIsolate@1@@Z 1001913c     node:node.dll
 0002:00000140       __imp_??1HandleScope@v8@@QAE@XZ 10019140     node:node.dll
 0002:00000144       __imp_?CreateHandle@HandleScope@v8@@CAPAPAVObject@internal@2@PAVHeapObject@42@PAV342@@Z 10019144     node:node.dll
 0002:00000148       __imp_?CreateHandle@HandleScope@v8@@KAPAPAVObject@internal@2@PAVIsolate@42@PAV342@@Z 10019148     node:node.dll
 0002:0000014c       __imp_?NewFromUtf8@String@v8@@SA?AV?$MaybeLocal@VString@v8@@@2@PAVIsolate@2@PBDW4NewStringType@2@H@Z 1001914c     node:node.dll
 0002:00000150       __imp_??0Utf8Value@String@v8@@QAE@V?$Local@VValue@v8@@@2@@Z 10019150     node:node.dll
 0002:00000154       __imp_??1Utf8Value@String@v8@@QAE@XZ 10019154     node:node.dll
 0002:00000158       __imp_?New@FunctionTemplate@v8@@SA?AV?$Local@VFunctionTemplate@v8@@@2@PAVIsolate@2@P6AXABV?$FunctionCallbackInfo@VValue@v8@@@2@@ZV?$Local@VValue@v8@@@2@V?$Local@VSignature@v8@@@2@H@Z 10019158     node:node.dll
 0002:0000015c       __imp_?GetFunction@FunctionTemplate@v8@@QAE?AV?$MaybeLocal@VFunction@v8@@@2@V?$Local@VContext@v8@@@2@@Z 1001915c     node:node.dll
 0002:00000160       __imp_??0EscapableHandleScope@v8@@QAE@PAVIsolate@1@@Z 10019160     node:node.dll
 0002:00000164       __imp_?Escape@EscapableHandleScope@v8@@AAEPAPAVObject@internal@2@PAPAV342@@Z 10019164     node:node.dll
 0002:00000168       __imp_?ToLocalEmpty@V8@v8@@CAXXZ 10019168     node:node.dll
 0002:0000016c       __imp__node_module_register 1001916c     node:node.dll
 0002:00000170       \177node_NULL_THUNK_DATA   10019170     node:node.dll
 0002:00000174       ___xc_a                    10019174     LIBCMT:crt0init.obj
 0002:0000019c       __register_nslog_          1001919c     main.obj
 0002:000001a0       ___xc_z                    100191a0     LIBCMT:crt0init.obj
 0002:000001a4       ___xi_a                    100191a4     LIBCMT:crt0init.obj
 0002:000001b8       ___xi_z                    100191b8     LIBCMT:crt0init.obj
 0002:000001bc       ___xp_a                    100191bc     LIBCMT:crt0init.obj
 0002:000001cc       ___xp_z                    100191cc     LIBCMT:crt0init.obj
 0002:000001d0       ___xt_a                    100191d0     LIBCMT:crt0init.obj
 0002:000001d4       ___xt_z                    100191d4     LIBCMT:crt0init.obj
 0002:000006e8       ??_C@_0BC@CIJDGCDI@permission?5denied?$AA@ 100196e8     libcpmt:syserror.obj
 0002:000006fc       ??_C@_0M@MIDIAGJP@file?5exists?$AA@ 100196fc     libcpmt:syserror.obj
 0002:00000708       ??_C@_0P@FDINDDOK@no?5such?5device?$AA@ 10019708     libcpmt:syserror.obj
 0002:00000718       ??_C@_0BC@EJHOMAAK@filename?5too?5long?$AA@ 10019718     libcpmt:syserror.obj
 0002:0000072c       ??_C@_0BI@NGCEHDD@device?5or?5resource?5busy?$AA@ 1001972c     libcpmt:syserror.obj
 0002:00000744       ??_C@_08GLNPIFBN@io?5error?$AA@ 10019744     libcpmt:syserror.obj
 0002:00000750       ??_C@_0BE@JIDOCPHM@directory?5not?5empty?$AA@ 10019750     libcpmt:syserror.obj
 0002:00000764       ??_C@_0BB@FCMFBGOM@invalid?5argument?$AA@ 10019764     libcpmt:syserror.obj
 0002:00000778       ??_C@_0BD@IJDJKDEA@no?5space?5on?5device?$AA@ 10019778     libcpmt:syserror.obj
 0002:0000078c       ??_C@_0BK@NDOCBPGE@no?5such?5file?5or?5directory?$AA@ 1001978c     libcpmt:syserror.obj
 0002:000007a8       ??_C@_0BH@KEFGLDAF@function?5not?5supported?$AA@ 100197a8     libcpmt:syserror.obj
 0002:000007c0       ??_C@_0BC@NJECKMKE@no?5lock?5available?$AA@ 100197c0     libcpmt:syserror.obj
 0002:000007d4       ??_C@_0BC@ENOOLCNF@not?5enough?5memory?$AA@ 100197d4     libcpmt:syserror.obj
 0002:000007e8       ??_C@_0BP@LKNGHENJ@resource?5unavailable?5try?5again?$AA@ 100197e8     libcpmt:syserror.obj
 0002:00000808       ??_C@_0BC@PPHBOELF@cross?5device?5link?$AA@ 10019808     libcpmt:syserror.obj
 0002:0000081c       ??_C@_0BD@MOLBPMEA@operation?5canceled?$AA@ 1001981c     libcpmt:syserror.obj
 0002:00000830       ??_C@_0BE@GHAFMPAH@too?5many?5files?5open?$AA@ 10019830     libcpmt:syserror.obj
 0002:00000844       ??_C@_0BC@FNODOBAE@permission_denied?$AA@ 10019844     libcpmt:syserror.obj
 0002:00000858       ??_C@_0P@LNDJPBFK@address_in_use?$AA@ 10019858     libcpmt:syserror.obj
 0002:00000868       ??_C@_0BG@IPMGOJF@address_not_available?$AA@ 10019868     libcpmt:syserror.obj
 0002:00000880       ??_C@_0BN@LCBDHODA@address_family_not_supported?$AA@ 10019880     libcpmt:syserror.obj
 0002:000008a0       ??_C@_0BP@FOJJHMCC@connection_already_in_progress?$AA@ 100198a0     libcpmt:syserror.obj
 0002:000008c0       ??_C@_0BE@DLHHIBGN@bad_file_descriptor?$AA@ 100198c0     libcpmt:syserror.obj
 0002:000008d4       ??_C@_0BD@OJMJDIGI@connection_aborted?$AA@ 100198d4     libcpmt:syserror.obj
 0002:000008e8       ??_C@_0BD@NGKCIFEP@connection_refused?$AA@ 100198e8     libcpmt:syserror.obj
 0002:000008fc       ??_C@_0BB@JOANDNCK@connection_reset?$AA@ 100198fc     libcpmt:syserror.obj
 0002:00000910       ??_C@_0BN@JLJNLKLK@destination_address_required?$AA@ 10019910     libcpmt:syserror.obj
 0002:00000930       ??_C@_0M@IJGMGFGP@bad_address?$AA@ 10019930     libcpmt:syserror.obj
 0002:0000093c       ??_C@_0BB@KKNHPPIN@host_unreachable?$AA@ 1001993c     libcpmt:syserror.obj
 0002:00000950       ??_C@_0BG@DJGBJIIK@operation_in_progress?$AA@ 10019950     libcpmt:syserror.obj
 0002:00000968       ??_C@_0M@EGEKIIMP@interrupted?$AA@ 10019968     libcpmt:syserror.obj
 0002:00000974       ??_C@_0BB@FFIHMIPJ@invalid_argument?$AA@ 10019974     libcpmt:syserror.obj
 0002:00000988       ??_C@_0BC@FIFLCHLO@already_connected?$AA@ 10019988     libcpmt:syserror.obj
 0002:0000099c       ??_C@_0BE@GJJJJDDA@too_many_files_open?$AA@ 1001999c     libcpmt:syserror.obj
 0002:000009b0       ??_C@_0N@HPMLKHPL@message_size?$AA@ 100199b0     libcpmt:syserror.obj
 0002:000009c0       ??_C@_0BC@LEEIKBAL@filename_too_long?$AA@ 100199c0     libcpmt:syserror.obj
 0002:000009d4       ??_C@_0N@FCPALPJK@network_down?$AA@ 100199d4     libcpmt:syserror.obj
 0002:000009e4       ??_C@_0O@EHNDLHIG@network_reset?$AA@ 100199e4     libcpmt:syserror.obj
 0002:000009f4       ??_C@_0BE@JFNJIDNF@network_unreachable?$AA@ 100199f4     libcpmt:syserror.obj
 0002:00000a08       ??_C@_0BA@FDIJKJCL@no_buffer_space?$AA@ 10019a08     libcpmt:syserror.obj
 0002:00000a18       ??_C@_0BD@JHIHCGKP@no_protocol_option?$AA@ 10019a18     libcpmt:syserror.obj
 0002:00000a2c       ??_C@_0O@GBCLHHD@not_connected?$AA@ 10019a2c     libcpmt:syserror.obj
 0002:00000a3c       ??_C@_0N@IMHKKLEM@not_a_socket?$AA@ 10019a3c     libcpmt:syserror.obj
 0002:00000a4c       ??_C@_0BI@ICEIDKLJ@operation_not_supported?$AA@ 10019a4c     libcpmt:syserror.obj
 0002:00000a64       ??_C@_0BH@KAPBAIJF@protocol_not_supported?$AA@ 10019a64     libcpmt:syserror.obj
 0002:00000a7c       ??_C@_0BE@GAOJJFPC@wrong_protocol_type?$AA@ 10019a7c     libcpmt:syserror.obj
 0002:00000a90       ??_C@_09NCHNLHPG@timed_out?$AA@ 10019a90     libcpmt:syserror.obj
 0002:00000a9c       ??_C@_0BG@GDGHKFDH@operation_would_block?$AA@ 10019a9c     libcpmt:syserror.obj
 0002:00000ab4       ??_C@_0BN@LKKBCCDB@address?5family?5not?5supported?$AA@ 10019ab4     libcpmt:syserror.obj
 0002:00000ad4       ??_C@_0P@LDMLAFHI@address?5in?5use?$AA@ 10019ad4     libcpmt:syserror.obj
 0002:00000ae4       ??_C@_0BG@DHPCNBJB@address?5not?5available?$AA@ 10019ae4     libcpmt:syserror.obj
 0002:00000afc       ??_C@_0BC@DFIBIBIL@already?5connected?$AA@ 10019afc     libcpmt:syserror.obj
 0002:00000b10       ??_C@_0BH@CAKOHOMI@argument?5list?5too?5long?$AA@ 10019b10     libcpmt:syserror.obj
 0002:00000b28       ??_C@_0BH@CGIMPKIM@argument?5out?5of?5domain?$AA@ 10019b28     libcpmt:syserror.obj
 0002:00000b40       ??_C@_0M@KGHGGJGL@bad?5address?$AA@ 10019b40     libcpmt:syserror.obj
 0002:00000b4c       ??_C@_0BE@MPJPGCEO@bad?5file?5descriptor?$AA@ 10019b4c     libcpmt:syserror.obj
 0002:00000b60       ??_C@_0M@PMMIEFCP@bad?5message?$AA@ 10019b60     libcpmt:syserror.obj
 0002:00000b6c       ??_C@_0M@KPHOFDBE@broken?5pipe?$AA@ 10019b6c     libcpmt:syserror.obj
 0002:00000b78       ??_C@_0BD@MGNDDEGM@connection?5aborted?$AA@ 10019b78     libcpmt:syserror.obj
 0002:00000b8c       ??_C@_0BP@KAIHPOGN@connection?5already?5in?5progress?$AA@ 10019b8c     libcpmt:syserror.obj
 0002:00000bac       ??_C@_0BD@PJLIIJEL@connection?5refused?$AA@ 10019bac     libcpmt:syserror.obj
 0002:00000bc0       ??_C@_0BB@IECNJNOI@connection?5reset?$AA@ 10019bc0     libcpmt:syserror.obj
 0002:00000bd4       ??_C@_0BN@KDMIFEIP@destination?5address?5required?$AA@ 10019bd4     libcpmt:syserror.obj
 0002:00000bf4       ??_C@_0BI@BNCLIGPB@executable?5format?5error?$AA@ 10019bf4     libcpmt:syserror.obj
 0002:00000c0c       ??_C@_0P@DNAJLBJK@file?5too?5large?$AA@ 10019c0c     libcpmt:syserror.obj
 0002:00000c1c       ??_C@_0BB@DHFDFGDM@host?5unreachable?$AA@ 10019c1c     libcpmt:syserror.obj
 0002:00000c30       ??_C@_0BD@JPHBMONG@identifier?5removed?$AA@ 10019c30     libcpmt:syserror.obj
 0002:00000c44       ??_C@_0BG@CDNPAGJK@illegal?5byte?5sequence?$AA@ 10019c44     libcpmt:syserror.obj
 0002:00000c5c       ??_C@_0CD@BNPLBMNA@inappropriate?5io?5control?5operati@ 10019c5c     libcpmt:syserror.obj
 0002:00000c80       ??_C@_0N@OHAFKDEK@invalid?5seek?$AA@ 10019c80     libcpmt:syserror.obj
 0002:00000c90       ??_C@_0P@FLLDBIDK@is?5a?5directory?$AA@ 10019c90     libcpmt:syserror.obj
 0002:00000ca0       ??_C@_0N@IFLPBIOP@message?5size?$AA@ 10019ca0     libcpmt:syserror.obj
 0002:00000cb0       ??_C@_0N@KIIEAAIO@network?5down?$AA@ 10019cb0     libcpmt:syserror.obj
 0002:00000cc0       ??_C@_0O@FNPDBHEE@network?5reset?$AA@ 10019cc0     libcpmt:syserror.obj
 0002:00000cd0       ??_C@_0BE@IFNCKGE@network?5unreachable?$AA@ 10019cd0     libcpmt:syserror.obj
 0002:00000ce4       ??_C@_0BA@PFFCAOFK@no?5buffer?5space?$AA@ 10019ce4     libcpmt:syserror.obj
 0002:00000cf4       ??_C@_0BB@IEPBLJHK@no?5child?5process?$AA@ 10019cf4     libcpmt:syserror.obj
 0002:00000d08       ??_C@_07PLECNNKG@no?5link?$AA@ 10019d08     libcpmt:syserror.obj
 0002:00000d10       ??_C@_0BF@PBGGPKKE@no?5message?5available?$AA@ 10019d10     libcpmt:syserror.obj
 0002:00000d28       ??_C@_0L@EDOLMPAK@no?5message?$AA@ 10019d28     libcpmt:syserror.obj
 0002:00000d34       ??_C@_0BD@EAMBFIDF@no?5protocol?5option?$AA@ 10019d34     libcpmt:syserror.obj
 0002:00000d48       ??_C@_0BE@MKFDAFMP@no?5stream?5resources?$AA@ 10019d48     libcpmt:syserror.obj
 0002:00000d5c       ??_C@_0BK@IMCPHCBI@no?5such?5device?5or?5address?$AA@ 10019d5c     libcpmt:syserror.obj
 0002:00000d78       ??_C@_0BA@ENLPPKBN@no?5such?5process?$AA@ 10019d78     libcpmt:syserror.obj
 0002:00000d88       ??_C@_0BA@DOCPFFJG@not?5a?5directory?$AA@ 10019d88     libcpmt:syserror.obj
 0002:00000d98       ??_C@_0N@POEIPGGF@not?5a?5socket?$AA@ 10019d98     libcpmt:syserror.obj
 0002:00000da8       ??_C@_0N@LGAPMMPI@not?5a?5stream?$AA@ 10019da8     libcpmt:syserror.obj
 0002:00000db8       ??_C@_0O@GLMIBBEG@not?5connected?$AA@ 10019db8     libcpmt:syserror.obj
 0002:00000dc8       ??_C@_0O@NHEDABJP@not?5supported?$AA@ 10019dc8     libcpmt:syserror.obj
 0002:00000dd8       ??_C@_0BG@KDKHOPCO@operation?5in?5progress?$AA@ 10019dd8     libcpmt:syserror.obj
 0002:00000df0       ??_C@_0BI@OHIEJAAB@operation?5not?5permitted?$AA@ 10019df0     libcpmt:syserror.obj
 0002:00000e08       ??_C@_0BI@LNEGIFLN@operation?5not?5supported?$AA@ 10019e08     libcpmt:syserror.obj
 0002:00000e20       ??_C@_0BG@OEMDKMEE@operation?5would?5block?$AA@ 10019e20     libcpmt:syserror.obj
 0002:00000e38       ??_C@_0L@BLPOFLNJ@owner?5dead?$AA@ 10019e38     libcpmt:syserror.obj
 0002:00000e44       ??_C@_0P@FNPOCJBE@protocol?5error?$AA@ 10019e44     libcpmt:syserror.obj
 0002:00000e54       ??_C@_0BH@JPPPLHJB@protocol?5not?5supported?$AA@ 10019e54     libcpmt:syserror.obj
 0002:00000e6c       ??_C@_0BG@EICBIHDP@read?5only?5file?5system?$AA@ 10019e6c     libcpmt:syserror.obj
 0002:00000e84       ??_C@_0BO@BJBOMOEJ@resource?5deadlock?5would?5occur?$AA@ 10019e84     libcpmt:syserror.obj
 0002:00000ea4       ??_C@_0BE@GOIPJJHG@result?5out?5of?5range?$AA@ 10019ea4     libcpmt:syserror.obj
 0002:00000eb8       ??_C@_0BG@MPLKFPAE@state?5not?5recoverable?$AA@ 10019eb8     libcpmt:syserror.obj
 0002:00000ed0       ??_C@_0P@DIIFGFCG@stream?5timeout?$AA@ 10019ed0     libcpmt:syserror.obj
 0002:00000ee0       ??_C@_0P@IPFDMIFL@text?5file?5busy?$AA@ 10019ee0     libcpmt:syserror.obj
 0002:00000ef0       ??_C@_09KJPPMAOI@timed?5out?$AA@ 10019ef0     libcpmt:syserror.obj
 0002:00000efc       ??_C@_0BO@HACHBEKI@too?5many?5files?5open?5in?5system?$AA@ 10019efc     libcpmt:syserror.obj
 0002:00000f1c       ??_C@_0P@HCOMKFCC@too?5many?5links?$AA@ 10019f1c     libcpmt:syserror.obj
 0002:00000f2c       ??_C@_0BO@EFGOJEF@too?5many?5symbolic?5link?5levels?$AA@ 10019f2c     libcpmt:syserror.obj
 0002:00000f4c       ??_C@_0BA@KGKGOOJA@value?5too?5large?$AA@ 10019f4c     libcpmt:syserror.obj
 0002:00000f5c       ??_C@_0BE@MIEJDDNH@wrong?5protocol?5type?$AA@ 10019f5c     libcpmt:syserror.obj
 0002:00000f74       ??_7bad_alloc@std@@6B@     10019f74     libcpmt:xthrow.obj
 0002:00000f7c       ??_C@_0P@GHFPNOJB@bad?5allocation?$AA@ 10019f7c     libcpmt:xthrow.obj
 0002:00000f90       ??_7logic_error@std@@6B@   10019f90     libcpmt:xthrow.obj
 0002:00000f9c       ??_7length_error@std@@6B@  10019f9c     libcpmt:xthrow.obj
 0002:00000fa8       ??_7out_of_range@std@@6B@  10019fa8     libcpmt:xthrow.obj
 0002:00000fb4       ??_7runtime_error@std@@6B@ 10019fb4     libcpmt:xthrow.obj
 0002:00000fc0       ??_7_Facet_base@std@@6B@   10019fc0     libcpmt:locale0.obj
 0002:00000fd0       ??_7_Locimp@locale@std@@6B@ 10019fd0     libcpmt:locale0.obj
 0002:00000fdc       ??_C@_01NBENCBCI@?$CK?$AA@ 10019fdc     libcpmt:locale0.obj
 0002:00000fe0       ??_C@_01GFHCPBMG@C?$AA@    10019fe0     libcpmt:locale0.obj
 0002:00000fe8       ??_7?$ctype@D@std@@6B@     10019fe8     libcpmt:cout.obj
 0002:00001018       ??_7_System_error@std@@6B@ 1001a018     libcpmt:cout.obj
 0002:00001024       ??_7failure@ios_base@std@@6B@ 1001a024     libcpmt:cout.obj
 0002:00001030       ??_7ios_base@std@@6B@      1001a030     libcpmt:cout.obj
 0002:00001038       ??_7?$basic_ios@DU?$char_traits@D@std@@@std@@6B@ 1001a038     libcpmt:cout.obj
 0002:00001040       ??_7?$basic_streambuf@DU?$char_traits@D@std@@@std@@6B@ 1001a040     libcpmt:cout.obj
 0002:00001080       ??_7?$basic_ostream@DU?$char_traits@D@std@@@std@@6B@ 1001a080     libcpmt:cout.obj
 0002:00001084       ??_8?$basic_ostream@DU?$char_traits@D@std@@@std@@7B@ 1001a084     libcpmt:cout.obj
 0002:00001090       ??_7?$basic_filebuf@DU?$char_traits@D@std@@@std@@6B@ 1001a090     libcpmt:cout.obj
 0002:000010d0       ??_7?$codecvt@DDH@std@@6B@ 1001a0d0     libcpmt:cout.obj
 0002:000010f8       ??_C@_08EPJLHIJG@bad?5cast?$AA@ 1001a0f8     libcpmt:cout.obj
 0002:00001108       ?_BADOFF@std@@3_JB         1001a108     libcpmt:ios.obj
 0002:00001110       ??_C@_11LOCGONAA@?$AA?$AA@ 1001a110     libcpmt:wlocale.obj
 0002:00001114       ??_C@_01JOAMLHOP@?9?$AA@   1001a114     libcpmt:wlocale.obj
 0002:00001280       __pRawDllMain              1001a280     LIBCMT:dllcrt0.obj
 0002:00001280       __pDefaultRawDllMain       1001a280     LIBCMT:dllcrt0.obj
 0002:000012a8       ??_7type_info@@6B@         1001a2a8     LIBCMT:typinfo.obj
 0002:000012ac       __FPinit                   1001a2ac     LIBCMT:fpinit.obj
 0002:000012b4       ??_7exception@std@@6B@     1001a2b4     LIBCMT:stdexcpt.obj
 0002:000012bc       ??_C@_0BC@EOODALEL@Unknown?5exception?$AA@ 1001a2bc     LIBCMT:stdexcpt.obj
 0002:000012d4       ??_7bad_cast@std@@6B@      1001a2d4     LIBCMT:stdexcpt.obj
 0002:000012e0       ___newctype                1001a2e0     LIBCMT:ctype.obj
 0002:000015e0       __wctype                   1001a5e0     LIBCMT:ctype.obj
 0002:000017e8       ___newclmap                1001a7e8     LIBCMT:ctype.obj
 0002:00001968       ___newcumap                1001a968     LIBCMT:ctype.obj
 0002:00001ae8       ??_C@_1BK@MGMFAEKH@?$AAk?$AAe?$AAr?$AAn?$AAe?$AAl?$AA3?$AA2?$AA?4?$AAd?$AAl?$AAl?$AA?$AA@ 1001aae8     LIBCMT:winapisupp.obj
 0002:00001b04       ??_C@_08KNHFBNJ@FlsAlloc?$AA@ 1001ab04     LIBCMT:winapisupp.obj
 0002:00001b10       ??_C@_07PEJMOBNF@FlsFree?$AA@ 1001ab10     LIBCMT:winapisupp.obj
 0002:00001b18       ??_C@_0M@GDNOONDI@FlsGetValue?$AA@ 1001ab18     LIBCMT:winapisupp.obj
 0002:00001b24       ??_C@_0M@JCPCPOEF@FlsSetValue?$AA@ 1001ab24     LIBCMT:winapisupp.obj
 0002:00001b30       ??_C@_0BM@HCFOFFN@InitializeCriticalSectionEx?$AA@ 1001ab30     LIBCMT:winapisupp.obj
 0002:00001b4c       ??_C@_0P@DLHPPCNH@CreateEventExW?$AA@ 1001ab4c     LIBCMT:winapisupp.obj
 0002:00001b5c       ??_C@_0BD@KIEEOEEH@CreateSemaphoreExW?$AA@ 1001ab5c     LIBCMT:winapisupp.obj
 0002:00001b70       ??_C@_0BI@BKLFFAPO@SetThreadStackGuarantee?$AA@ 1001ab70     LIBCMT:winapisupp.obj
 0002:00001b88       ??_C@_0BG@OGFAJCKC@CreateThreadpoolTimer?$AA@ 1001ab88     LIBCMT:winapisupp.obj
 0002:00001ba0       ??_C@_0BD@LPLEMMDI@SetThreadpoolTimer?$AA@ 1001aba0     LIBCMT:winapisupp.obj
 0002:00001bb4       ??_C@_0CA@FMNJENH@WaitForThreadpoolTimerCallbacks?$AA@ 1001abb4     LIBCMT:winapisupp.obj
 0002:00001bd4       ??_C@_0BF@DCFCCNOC@CloseThreadpoolTimer?$AA@ 1001abd4     LIBCMT:winapisupp.obj
 0002:00001bec       ??_C@_0BF@FLABGKKM@CreateThreadpoolWait?$AA@ 1001abec     LIBCMT:winapisupp.obj
 0002:00001c04       ??_C@_0BC@MGCOHNA@SetThreadpoolWait?$AA@ 1001ac04     LIBCMT:winapisupp.obj
 0002:00001c18       ??_C@_0BE@OCIOMIMP@CloseThreadpoolWait?$AA@ 1001ac18     LIBCMT:winapisupp.obj
 0002:00001c2c       ??_C@_0BJ@LKGHFHBO@FlushProcessWriteBuffers?$AA@ 1001ac2c     LIBCMT:winapisupp.obj
 0002:00001c48       ??_C@_0BP@KALKKPMO@FreeLibraryWhenCallbackReturns?$AA@ 1001ac48     LIBCMT:winapisupp.obj
 0002:00001c68       ??_C@_0BK@DFNBACLA@GetCurrentProcessorNumber?$AA@ 1001ac68     LIBCMT:winapisupp.obj
 0002:00001c84       ??_C@_0BP@KHGALBC@GetLogicalProcessorInformation?$AA@ 1001ac84     LIBCMT:winapisupp.obj
 0002:00001ca4       ??_C@_0BE@FKKLLFLM@CreateSymbolicLinkW?$AA@ 1001aca4     LIBCMT:winapisupp.obj
 0002:00001cb8       ??_C@_0BJ@OHNKDLIJ@SetDefaultDllDirectories?$AA@ 1001acb8     LIBCMT:winapisupp.obj
 0002:00001cd4       ??_C@_0BE@LJANKFHF@EnumSystemLocalesEx?$AA@ 1001acd4     LIBCMT:winapisupp.obj
 0002:00001ce8       ??_C@_0BA@IHGNDAEB@CompareStringEx?$AA@ 1001ace8     LIBCMT:winapisupp.obj
 0002:00001cf8       ??_C@_0BA@EPCJIIPD@GetDateFormatEx?$AA@ 1001acf8     LIBCMT:winapisupp.obj
 0002:00001d08       ??_C@_0BA@ONOKGCMP@GetLocaleInfoEx?$AA@ 1001ad08     LIBCMT:winapisupp.obj
 0002:00001d18       ??_C@_0BA@CIJJKCJJ@GetTimeFormatEx?$AA@ 1001ad18     LIBCMT:winapisupp.obj
 0002:00001d28       ??_C@_0BJ@PBCCBIPI@GetUserDefaultLocaleName?$AA@ 1001ad28     LIBCMT:winapisupp.obj
 0002:00001d44       ??_C@_0BC@CELBKLLA@IsValidLocaleName?$AA@ 1001ad44     LIBCMT:winapisupp.obj
 0002:00001d58       ??_C@_0O@KKBNKAPF@LCMapStringEx?$AA@ 1001ad58     LIBCMT:winapisupp.obj
 0002:00001d68       ??_C@_0BE@JOGNEJCI@GetCurrentPackageId?$AA@ 1001ad68     LIBCMT:winapisupp.obj
 0002:00001d7c       ??_C@_0P@CDHHOHKP@GetTickCount64?$AA@ 1001ad7c     LIBCMT:winapisupp.obj
 0002:00001d8c       ??_C@_0BO@KPCLFDJJ@GetFileInformationByHandleExW?$AA@ 1001ad8c     LIBCMT:winapisupp.obj
 0002:00001dac       ??_C@_0BM@MHIDLABK@SetFileInformationByHandleW?$AA@ 1001adac     LIBCMT:winapisupp.obj
 0002:00001dc8       _LcidToLocaleNameTable     1001adc8     LIBCMT:winapinls.obj
 0002:000024e8       _LocaleNameToIndexTable    1001b4e8     LIBCMT:winapinls.obj
 0002:00002c08       ??_C@_15EMKDOKLE@?$AAa?$AAr?$AA?$AA@ 1001bc08     LIBCMT:winapinls.obj
 0002:00002c10       ??_C@_15KNPADPLH@?$AAb?$AAg?$AA?$AA@ 1001bc10     LIBCMT:winapinls.obj
 0002:00002c18       ??_C@_15EDMHLDMO@?$AAc?$AAa?$AA?$AA@ 1001bc18     LIBCMT:winapinls.obj
 0002:00002c20       ??_C@_1O@BPEAJADD@?$AAz?$AAh?$AA?9?$AAC?$AAH?$AAS?$AA?$AA@ 1001bc20     LIBCMT:winapinls.obj
 0002:00002c30       ??_C@_15LJNHCMNK@?$AAc?$AAs?$AA?$AA@ 1001bc30     LIBCMT:winapinls.obj
 0002:00002c38       ??_C@_15FOMCIDHG@?$AAd?$AAa?$AA?$AA@ 1001bc38     LIBCMT:winapinls.obj
 0002:00002c40       ??_C@_15NBKABECB@?$AAd?$AAe?$AA?$AA@ 1001bc40     LIBCMT:winapinls.obj
 0002:00002c48       ??_C@_15GHPEIIAO@?$AAe?$AAl?$AA?$AA@ 1001bc48     LIBCMT:winapinls.obj
 0002:00002c50       ??_C@_15MNPNEAIF@?$AAe?$AAn?$AA?$AA@ 1001bc50     LIBCMT:winapinls.obj
 0002:00002c58       ??_C@_15GPIOMPMH@?$AAe?$AAs?$AA?$AA@ 1001bc58     LIBCMT:winapinls.obj
 0002:00002c60       ??_C@_15NGLOAKJC@?$AAf?$AAi?$AA?$AA@ 1001bc60     LIBCMT:winapinls.obj
 0002:00002c68       ??_C@_15FBKGNKAM@?$AAf?$AAr?$AA?$AA@ 1001bc68     LIBCMT:winapinls.obj
 0002:00002c70       ??_C@_15KGGCNEFK@?$AAh?$AAe?$AA?$AA@ 1001bc70     LIBCMT:winapinls.obj
 0002:00002c78       ??_C@_15PGHLIDMF@?$AAh?$AAu?$AA?$AA@ 1001bc78     LIBCMT:winapinls.obj
 0002:00002c80       ??_C@_15BIEMAPLM@?$AAi?$AAs?$AA?$AA@ 1001bc80     LIBCMT:winapinls.obj
 0002:00002c88       ??_C@_15IFJLDHAF@?$AAi?$AAt?$AA?$AA@ 1001bc88     LIBCMT:winapinls.obj
 0002:00002c90       ??_C@_15GEMIOCAG@?$AAj?$AAa?$AA?$AA@ 1001bc90     LIBCMT:winapinls.obj
 0002:00002c98       ??_C@_15EPELEGJA@?$AAk?$AAo?$AA?$AA@ 1001bc98     LIBCMT:winapinls.obj
 0002:00002ca0       ??_C@_15NDDHIMN@?$AAn?$AAl?$AA?$AA@ 1001bca0     LIBCMT:winapinls.obj
 0002:00002ca8       ??_C@_15BPIGNHCD@?$AAn?$AAo?$AA?$AA@ 1001bca8     LIBCMT:winapinls.obj
 0002:00002cb0       ??_C@_15DEOPBLCG@?$AAp?$AAl?$AA?$AA@ 1001bcb0     LIBCMT:winapinls.obj
 0002:00002cb8       ??_C@_15KBECGEFG@?$AAp?$AAt?$AA?$AA@ 1001bcb8     LIBCMT:winapinls.obj
 0002:00002cc0       ??_C@_15GLJCBFMD@?$AAr?$AAo?$AA?$AA@ 1001bcc0     LIBCMT:winapinls.obj
 0002:00002cc8       ??_C@_15FEDGKCDI@?$AAr?$AAu?$AA?$AA@ 1001bcc8     LIBCMT:winapinls.obj
 0002:00002cd0       ??_C@_15GLKMLLHM@?$AAh?$AAr?$AA?$AA@ 1001bcd0     LIBCMT:winapinls.obj
 0002:00002cd8       ??_C@_15CPKMFBDB@?$AAs?$AAk?$AA?$AA@ 1001bcd8     LIBCMT:winapinls.obj
 0002:00002ce0       ??_C@_15BAAIOGMK@?$AAs?$AAq?$AA?$AA@ 1001bce0     LIBCMT:winapinls.obj
 0002:00002ce8       ??_C@_15INNPNOHD@?$AAs?$AAv?$AA?$AA@ 1001bce8     LIBCMT:winapinls.obj
 0002:00002cf0       ??_C@_15CABMMOGH@?$AAt?$AAh?$AA?$AA@ 1001bcf0     LIBCMT:winapinls.obj
 0002:00002cf8       ??_C@_15BPLIHJJM@?$AAt?$AAr?$AA?$AA@ 1001bcf8     LIBCMT:winapinls.obj
 0002:00002d00       ??_C@_15NEOEKKDJ@?$AAu?$AAr?$AA?$AA@ 1001bd00     LIBCMT:winapinls.obj
 0002:00002d08       ??_C@_15NFICGAJK@?$AAi?$AAd?$AA?$AA@ 1001bd08     LIBCMT:winapinls.obj
 0002:00002d10       ??_C@_15PJPFLCCM@?$AAu?$AAk?$AA?$AA@ 1001bd10     LIBCMT:winapinls.obj
 0002:00002d18       ??_C@_15HPJPHDM@?$AAb?$AAe?$AA?$AA@ 1001bd18     LIBCMT:winapinls.obj
 0002:00002d20       ??_C@_15LCHLGJII@?$AAs?$AAl?$AA?$AA@ 1001bd20     LIBCMT:winapinls.obj
 0002:00002d28       ??_C@_15PCFJPHHO@?$AAe?$AAt?$AA?$AA@ 1001bd28     LIBCMT:winapinls.obj
 0002:00002d30       ??_C@_15HPFPGODN@?$AAl?$AAv?$AA?$AA@ 1001bd30     LIBCMT:winapinls.obj
 0002:00002d38       ??_C@_15NFFGKGLG@?$AAl?$AAt?$AA?$AA@ 1001bd38     LIBCMT:winapinls.obj
 0002:00002d40       ??_C@_15BDAKCCHN@?$AAf?$AAa?$AA?$AA@ 1001bd40     LIBCMT:winapinls.obj
 0002:00002d48       ??_C@_15NFGIAIAJ@?$AAv?$AAi?$AA?$AA@ 1001bd48     LIBCMT:winapinls.obj
 0002:00002d50       ??_C@_15LMKNDMHN@?$AAh?$AAy?$AA?$AA@ 1001bd50     LIBCMT:winapinls.obj
 0002:00002d58       ??_C@_15IJBHMCFL@?$AAa?$AAz?$AA?$AA@ 1001bd58     LIBCMT:winapinls.obj
 0002:00002d60       ??_C@_15EKOFJABL@?$AAe?$AAu?$AA?$AA@ 1001bd60     LIBCMT:winapinls.obj
 0002:00002d68       ??_C@_15BGHADCNK@?$AAm?$AAk?$AA?$AA@ 1001bd68     LIBCMT:winapinls.obj
 0002:00002d70       ??_C@_15JDNICKHM@?$AAa?$AAf?$AA?$AA@ 1001bd70     LIBCMT:winapinls.obj
 0002:00002d78       ??_C@_15KPJEDBKD@?$AAk?$AAa?$AA?$AA@ 1001bd78     LIBCMT:winapinls.obj
 0002:00002d80       ??_C@_15PDNFFFEO@?$AAf?$AAo?$AA?$AA@ 1001bd80     LIBCMT:winapinls.obj
 0002:00002d88       ??_C@_15OMLEGLOC@?$AAh?$AAi?$AA?$AA@ 1001bd88     LIBCMT:winapinls.obj
 0002:00002d90       ??_C@_15IDNNENKK@?$AAm?$AAs?$AA?$AA@ 1001bd90     LIBCMT:winapinls.obj
 0002:00002d98       ??_C@_15MACJNBMH@?$AAk?$AAk?$AA?$AA@ 1001bd98     LIBCMT:winapinls.obj
 0002:00002da0       ??_C@_15DKDJEOND@?$AAk?$AAy?$AA?$AA@ 1001bda0     LIBCMT:winapinls.obj
 0002:00002da8       ??_C@_15DFGDLJBG@?$AAs?$AAw?$AA?$AA@ 1001bda8     LIBCMT:winapinls.obj
 0002:00002db0       ??_C@_15BBFAICNG@?$AAu?$AAz?$AA?$AA@ 1001bdb0     LIBCMT:winapinls.obj
 0002:00002db8       ??_C@_15DKNDCGEA@?$AAt?$AAt?$AA?$AA@ 1001bdb8     LIBCMT:winapinls.obj
 0002:00002dc0       ??_C@_15MGIFMDPL@?$AAp?$AAa?$AA?$AA@ 1001bdc0     LIBCMT:winapinls.obj
 0002:00002dc8       ??_C@_15HCNDBBA@?$AAg?$AAu?$AA?$AA@ 1001bdc8     LIBCMT:winapinls.obj
 0002:00002dd0       ??_C@_15FNBEIBON@?$AAt?$AAa?$AA?$AA@ 1001bdd0     LIBCMT:winapinls.obj
 0002:00002dd8       ??_C@_15NCHGBGLK@?$AAt?$AAe?$AA?$AA@ 1001bdd8     LIBCMT:winapinls.obj
 0002:00002de0       ??_C@_15PHPHCBPF@?$AAk?$AAn?$AA?$AA@ 1001bde0     LIBCMT:winapinls.obj
 0002:00002de8       ??_C@_15DLGBCKMP@?$AAm?$AAr?$AA?$AA@ 1001bde8     LIBCMT:winapinls.obj
 0002:00002df0       ??_C@_15EABBLBFF@?$AAs?$AAa?$AA?$AA@ 1001bdf0     LIBCMT:winapinls.obj
 0002:00002df8       ??_C@_15CBKOMCOI@?$AAm?$AAn?$AA?$AA@ 1001bdf8     LIBCMT:winapinls.obj
 0002:00002e00       ??_C@_15CKDMCJAF@?$AAg?$AAl?$AA?$AA@ 1001be00     LIBCMT:winapinls.obj
 0002:00002e08       ??_C@_17CNJFBPG@?$AAk?$AAo?$AAk?$AA?$AA@ 1001be08     LIBCMT:winapinls.obj
 0002:00002e10       ??_C@_17FFBJICPL@?$AAs?$AAy?$AAr?$AA?$AA@ 1001be10     LIBCMT:winapinls.obj
 0002:00002e18       ??_C@_17KPNDCPAF@?$AAd?$AAi?$AAv?$AA?$AA@ 1001be18     LIBCMT:winapinls.obj
 0002:00002e20       ??_C@_1M@OKAHONE@?$AAa?$AAr?$AA?9?$AAS?$AAA?$AA?$AA@ 1001be20     LIBCMT:winapinls.obj
 0002:00002e2c       ??_C@_1M@FFFIGIGK@?$AAb?$AAg?$AA?9?$AAB?$AAG?$AA?$AA@ 1001be2c     LIBCMT:winapinls.obj
 0002:00002e38       ??_C@_1M@BJNKEDC@?$AAc?$AAa?$AA?9?$AAE?$AAS?$AA?$AA@ 1001be38     LIBCMT:winapinls.obj
 0002:00002e44       ??_C@_1M@CLNBBOPM@?$AAz?$AAh?$AA?9?$AAT?$AAW?$AA?$AA@ 1001be44     LIBCMT:winapinls.obj
 0002:00002e50       ??_C@_1M@IJJHFJHA@?$AAc?$AAs?$AA?9?$AAC?$AAZ?$AA?$AA@ 1001be50     LIBCMT:winapinls.obj
 0002:00002e5c       ??_C@_1M@CLPEOBGI@?$AAd?$AAa?$AA?9?$AAD?$AAK?$AA?$AA@ 1001be5c     LIBCMT:winapinls.obj
 0002:00002e68       ??_C@_1M@MCMADGCB@?$AAd?$AAe?$AA?9?$AAD?$AAE?$AA?$AA@ 1001be68     LIBCMT:winapinls.obj
 0002:00002e74       ??_C@_1M@OOCKEMAM@?$AAe?$AAl?$AA?9?$AAG?$AAR?$AA?$AA@ 1001be74     LIBCMT:winapinls.obj
 0002:00002e80       ??_C@_1M@BMHNFIME@?$AAe?$AAn?$AA?9?$AAU?$AAS?$AA?$AA@ 1001be80     LIBCMT:winapinls.obj
 0002:00002e8c       ??_C@_1M@DDNJFGID@?$AAf?$AAi?$AA?9?$AAF?$AAI?$AA?$AA@ 1001be8c     LIBCMT:winapinls.obj
 0002:00002e98       ??_C@_1M@GLIPPMAC@?$AAf?$AAr?$AA?9?$AAF?$AAR?$AA?$AA@ 1001be98     LIBCMT:winapinls.obj
 0002:00002ea4       ??_C@_1M@GFMCHPE@?$AAh?$AAe?$AA?9?$AAI?$AAL?$AA?$AA@ 1001bea4     LIBCMT:winapinls.obj
 0002:00002eb0       ??_C@_1M@MHLPGNKM@?$AAh?$AAu?$AA?9?$AAH?$AAU?$AA?$AA@ 1001beb0     LIBCMT:winapinls.obj
 0002:00002ebc       ??_C@_1M@LPDDNNPN@?$AAi?$AAs?$AA?9?$AAI?$AAS?$AA?$AA@ 1001bebc     LIBCMT:winapinls.obj
 0002:00002ec8       ??_C@_1M@MADIPODN@?$AAi?$AAt?$AA?9?$AAI?$AAT?$AA?$AA@ 1001bec8     LIBCMT:winapinls.obj
 0002:00002ed4       ??_C@_1M@HPNHIDJI@?$AAj?$AAa?$AA?9?$AAJ?$AAP?$AA?$AA@ 1001bed4     LIBCMT:winapinls.obj
 0002:00002ee0       ??_C@_1M@JLOOOEGK@?$AAk?$AAo?$AA?9?$AAK?$AAR?$AA?$AA@ 1001bee0     LIBCMT:winapinls.obj
 0002:00002eec       ??_C@_1M@IHBJJGG@?$AAn?$AAl?$AA?9?$AAN?$AAL?$AA?$AA@ 1001beec     LIBCMT:winapinls.obj
 0002:00002ef8       ??_C@_1M@EANAGDL@?$AAn?$AAb?$AA?9?$AAN?$AAO?$AA?$AA@ 1001bef8     LIBCMT:winapinls.obj
 0002:00002f04       ??_C@_1M@NEIEMEGP@?$AAp?$AAl?$AA?9?$AAP?$AAL?$AA?$AA@ 1001bf04     LIBCMT:winapinls.obj
 0002:00002f10       ??_C@_1M@BOCFIGEP@?$AAp?$AAt?$AA?9?$AAB?$AAR?$AA?$AA@ 1001bf10     LIBCMT:winapinls.obj
 0002:00002f1c       ??_C@_1M@IMPFOPBG@?$AAr?$AAo?$AA?9?$AAR?$AAO?$AA?$AA@ 1001bf1c     LIBCMT:winapinls.obj
 0002:00002f28       ??_C@_1M@IDNNEJMM@?$AAr?$AAu?$AA?9?$AAR?$AAU?$AA?$AA@ 1001bf28     LIBCMT:winapinls.obj
 0002:00002f34       ??_C@_1M@LILEEOGM@?$AAh?$AAr?$AA?9?$AAH?$AAR?$AA?$AA@ 1001bf34     LIBCMT:winapinls.obj
 0002:00002f40       ??_C@_1M@FKIFEHPB@?$AAs?$AAk?$AA?9?$AAS?$AAK?$AA?$AA@ 1001bf40     LIBCMT:winapinls.obj
 0002:00002f4c       ??_C@_1M@LJMAMNPJ@?$AAs?$AAq?$AA?9?$AAA?$AAL?$AA?$AA@ 1001bf4c     LIBCMT:winapinls.obj
 0002:00002f58       ??_C@_1M@GIAKDKJK@?$AAs?$AAv?$AA?9?$AAS?$AAE?$AA?$AA@ 1001bf58     LIBCMT:winapinls.obj
 0002:00002f64       ??_C@_1M@MKJKIKCL@?$AAt?$AAh?$AA?9?$AAT?$AAH?$AA?$AA@ 1001bf64     LIBCMT:winapinls.obj
 0002:00002f70       ??_C@_1M@MFLCCMPB@?$AAt?$AAr?$AA?9?$AAT?$AAR?$AA?$AA@ 1001bf70     LIBCMT:winapinls.obj
 0002:00002f7c       ??_C@_1M@OIJHDKJN@?$AAu?$AAr?$AA?9?$AAP?$AAK?$AA?$AA@ 1001bf7c     LIBCMT:winapinls.obj
 0002:00002f88       ??_C@_1M@LHIPCIEK@?$AAi?$AAd?$AA?9?$AAI?$AAD?$AA?$AA@ 1001bf88     LIBCMT:winapinls.obj
 0002:00002f94       ??_C@_1M@MFMOBGI@?$AAu?$AAk?$AA?9?$AAU?$AAA?$AA?$AA@ 1001bf94     LIBCMT:winapinls.obj
 0002:00002fa0       ??_C@_1M@OBGLJIPL@?$AAb?$AAe?$AA?9?$AAB?$AAY?$AA?$AA@ 1001bfa0     LIBCMT:winapinls.obj
 0002:00002fac       ??_C@_1M@BCFAJEAD@?$AAs?$AAl?$AA?9?$AAS?$AAI?$AA?$AA@ 1001bfac     LIBCMT:winapinls.obj
 0002:00002fb8       ??_C@_1M@FKFFEDDN@?$AAe?$AAt?$AA?9?$AAE?$AAE?$AA?$AA@ 1001bfb8     LIBCMT:winapinls.obj
 0002:00002fc4       ??_C@_1M@KGKKAACI@?$AAl?$AAv?$AA?9?$AAL?$AAV?$AA?$AA@ 1001bfc4     LIBCMT:winapinls.obj
 0002:00002fd0       ??_C@_1M@IFGBIJO@?$AAl?$AAt?$AA?9?$AAL?$AAT?$AA?$AA@ 1001bfd0     LIBCMT:winapinls.obj
 0002:00002fdc       ??_C@_1M@FGEAHEDM@?$AAf?$AAa?$AA?9?$AAI?$AAR?$AA?$AA@ 1001bfdc     LIBCMT:winapinls.obj
 0002:00002fe8       ??_C@_1M@KBMAIBFN@?$AAv?$AAi?$AA?9?$AAV?$AAN?$AA?$AA@ 1001bfe8     LIBCMT:winapinls.obj
 0002:00002ff4       ??_C@_1M@GPCBKDJK@?$AAh?$AAy?$AA?9?$AAA?$AAM?$AA?$AA@ 1001bff4     LIBCMT:winapinls.obj
 0002:00003000       ??_C@_1BG@BECMDDJB@?$AAa?$AAz?$AA?9?$AAA?$AAZ?$AA?9?$AAL?$AAa?$AAt?$AAn?$AA?$AA@ 1001c000     LIBCMT:winapinls.obj
 0002:00003018       ??_C@_1M@MAOFCAEA@?$AAe?$AAu?$AA?9?$AAE?$AAS?$AA?$AA@ 1001c018     LIBCMT:winapinls.obj
 0002:00003024       ??_C@_1M@IGHABKPI@?$AAm?$AAk?$AA?9?$AAM?$AAK?$AA?$AA@ 1001c024     LIBCMT:winapinls.obj
 0002:00003030       ??_C@_1M@IAIGNEJG@?$AAt?$AAn?$AA?9?$AAZ?$AAA?$AA?$AA@ 1001c030     LIBCMT:winapinls.obj
 0002:0000303c       ??_C@_1M@IIJCOJFA@?$AAx?$AAh?$AA?9?$AAZ?$AAA?$AA?$AA@ 1001c03c     LIBCMT:winapinls.obj
 0002:00003048       ??_C@_1M@LGPJHNJH@?$AAz?$AAu?$AA?9?$AAZ?$AAA?$AA?$AA@ 1001c048     LIBCMT:winapinls.obj
 0002:00003054       ??_C@_1M@HOKAOIO@?$AAa?$AAf?$AA?9?$AAZ?$AAA?$AA?$AA@ 1001c054     LIBCMT:winapinls.obj
 0002:00003060       ??_C@_1M@DPCLHLIE@?$AAk?$AAa?$AA?9?$AAG?$AAE?$AA?$AA@ 1001c060     LIBCMT:winapinls.obj
 0002:0000306c       ??_C@_1M@BLKMHJBI@?$AAf?$AAo?$AA?9?$AAF?$AAO?$AA?$AA@ 1001c06c     LIBCMT:winapinls.obj
 0002:00003078       ??_C@_1M@LGGJAPPB@?$AAh?$AAi?$AA?9?$AAI?$AAN?$AA?$AA@ 1001c078     LIBCMT:winapinls.obj
 0002:00003084       ??_C@_1M@FIKPIHFE@?$AAm?$AAt?$AA?9?$AAM?$AAT?$AA?$AA@ 1001c084     LIBCMT:winapinls.obj
 0002:00003090       ??_C@_1M@HEGGPBFA@?$AAs?$AAe?$AA?9?$AAN?$AAO?$AA?$AA@ 1001c090     LIBCMT:winapinls.obj
 0002:0000309c       ??_C@_1M@EIBJEEPA@?$AAm?$AAs?$AA?9?$AAM?$AAY?$AA?$AA@ 1001c09c     LIBCMT:winapinls.obj
 0002:000030a8       ??_C@_1M@FHLBGMPP@?$AAk?$AAk?$AA?9?$AAK?$AAZ?$AA?$AA@ 1001c0a8     LIBCMT:winapinls.obj
 0002:000030b4       ??_C@_1M@NGJJLCGI@?$AAk?$AAy?$AA?9?$AAK?$AAG?$AA?$AA@ 1001c0b4     LIBCMT:winapinls.obj
 0002:000030c0       ??_C@_1M@GIENNBFC@?$AAs?$AAw?$AA?9?$AAK?$AAE?$AA?$AA@ 1001c0c0     LIBCMT:winapinls.obj
 0002:000030cc       ??_C@_1BG@NDGMJIMJ@?$AAu?$AAz?$AA?9?$AAU?$AAZ?$AA?9?$AAL?$AAa?$AAt?$AAn?$AA?$AA@ 1001c0cc     LIBCMT:winapinls.obj
 0002:000030e4       ??_C@_1M@IDCCIHBC@?$AAt?$AAt?$AA?9?$AAR?$AAU?$AA?$AA@ 1001c0e4     LIBCMT:winapinls.obj
 0002:000030f0       ??_C@_1M@LOICPMOJ@?$AAb?$AAn?$AA?9?$AAI?$AAN?$AA?$AA@ 1001c0f0     LIBCMT:winapinls.obj
 0002:000030fc       ??_C@_1M@KPKKNEAH@?$AAp?$AAa?$AA?9?$AAI?$AAN?$AA?$AA@ 1001c0fc     LIBCMT:winapinls.obj
 0002:00003108       ??_C@_1M@PJGPPBOG@?$AAg?$AAu?$AA?9?$AAI?$AAN?$AA?$AA@ 1001c108     LIBCMT:winapinls.obj
 0002:00003114       ??_C@_1M@KMKMOPHI@?$AAt?$AAa?$AA?9?$AAI?$AAN?$AA?$AA@ 1001c114     LIBCMT:winapinls.obj
 0002:00003120       ??_C@_1M@KFEHEPAC@?$AAt?$AAe?$AA?9?$AAI?$AAN?$AA?$AA@ 1001c120     LIBCMT:winapinls.obj
 0002:0000312c       ??_C@_1M@CDCLMGHI@?$AAk?$AAn?$AA?9?$AAI?$AAN?$AA?$AA@ 1001c12c     LIBCMT:winapinls.obj
 0002:00003138       ??_C@_1M@MIODLDKF@?$AAm?$AAl?$AA?9?$AAI?$AAN?$AA?$AA@ 1001c138     LIBCMT:winapinls.obj
 0002:00003144       ??_C@_1M@PBIEACPO@?$AAm?$AAr?$AA?9?$AAI?$AAN?$AA?$AA@ 1001c144     LIBCMT:winapinls.obj
 0002:00003150       ??_C@_1M@NIDEAGPH@?$AAs?$AAa?$AA?9?$AAI?$AAN?$AA?$AA@ 1001c150     LIBCMT:winapinls.obj
 0002:0000315c       ??_C@_1M@FHIHCBIO@?$AAm?$AAn?$AA?9?$AAM?$AAN?$AA?$AA@ 1001c15c     LIBCMT:winapinls.obj
 0002:00003168       ??_C@_1M@JAIJPENP@?$AAc?$AAy?$AA?9?$AAG?$AAB?$AA?$AA@ 1001c168     LIBCMT:winapinls.obj
 0002:00003174       ??_C@_1M@PHGFBEPN@?$AAg?$AAl?$AA?9?$AAE?$AAS?$AA?$AA@ 1001c174     LIBCMT:winapinls.obj
 0002:00003180       ??_C@_1O@KPIPDNCP@?$AAk?$AAo?$AAk?$AA?9?$AAI?$AAN?$AA?$AA@ 1001c180     LIBCMT:winapinls.obj
 0002:00003190       ??_C@_1O@KNHJLDJA@?$AAs?$AAy?$AAr?$AA?9?$AAS?$AAY?$AA?$AA@ 1001c190     LIBCMT:winapinls.obj
 0002:000031a0       ??_C@_1O@MKEKBLAH@?$AAd?$AAi?$AAv?$AA?9?$AAM?$AAV?$AA?$AA@ 1001c1a0     LIBCMT:winapinls.obj
 0002:000031b0       ??_C@_1O@OHDCKDDF@?$AAq?$AAu?$AAz?$AA?9?$AAB?$AAO?$AA?$AA@ 1001c1b0     LIBCMT:winapinls.obj
 0002:000031c0       ??_C@_1M@LEPJNLFD@?$AAn?$AAs?$AA?9?$AAZ?$AAA?$AA?$AA@ 1001c1c0     LIBCMT:winapinls.obj
 0002:000031cc       ??_C@_1M@OMLEIIJB@?$AAm?$AAi?$AA?9?$AAN?$AAZ?$AA?$AA@ 1001c1cc     LIBCMT:winapinls.obj
 0002:000031d8       ??_C@_1M@PMPEAILG@?$AAa?$AAr?$AA?9?$AAI?$AAQ?$AA?$AA@ 1001c1d8     LIBCMT:winapinls.obj
 0002:000031e4       ??_C@_1M@BIBDDEMK@?$AAz?$AAh?$AA?9?$AAC?$AAN?$AA?$AA@ 1001c1e4     LIBCMT:winapinls.obj
 0002:000031f0       ??_C@_1M@CNKPNOEE@?$AAd?$AAe?$AA?9?$AAC?$AAH?$AA?$AA@ 1001c1f0     LIBCMT:winapinls.obj
 0002:000031fc       ??_C@_1M@LKMGMLKO@?$AAe?$AAn?$AA?9?$AAG?$AAB?$AA?$AA@ 1001c1fc     LIBCMT:winapinls.obj
 0002:00003208       ??_C@_1M@PGKJFFGL@?$AAe?$AAs?$AA?9?$AAM?$AAX?$AA?$AA@ 1001c208     LIBCMT:winapinls.obj
 0002:00003214       ??_C@_1M@DNNANBDC@?$AAf?$AAr?$AA?9?$AAB?$AAE?$AA?$AA@ 1001c214     LIBCMT:winapinls.obj
 0002:00003220       ??_C@_1M@HLGMDFHM@?$AAi?$AAt?$AA?9?$AAC?$AAH?$AA?$AA@ 1001c220     LIBCMT:winapinls.obj
 0002:0000322c       ??_C@_1M@CLLBGJH@?$AAn?$AAl?$AA?9?$AAB?$AAE?$AA?$AA@ 1001c22c     LIBCMT:winapinls.obj
 0002:00003238       ??_C@_1M@BODBOGLF@?$AAn?$AAn?$AA?9?$AAN?$AAO?$AA?$AA@ 1001c238     LIBCMT:winapinls.obj
 0002:00003244       ??_C@_1M@HFFAHKAD@?$AAp?$AAt?$AA?9?$AAP?$AAT?$AA?$AA@ 1001c244     LIBCMT:winapinls.obj
 0002:00003250       ??_C@_1BG@LNOAKHIE@?$AAs?$AAr?$AA?9?$AAS?$AAP?$AA?9?$AAL?$AAa?$AAt?$AAn?$AA?$AA@ 1001c250     LIBCMT:winapinls.obj
 0002:00003268       ??_C@_1M@HBMHBGAK@?$AAs?$AAv?$AA?9?$AAF?$AAI?$AA?$AA@ 1001c268     LIBCMT:winapinls.obj
 0002:00003274       ??_C@_1BG@DGCJGJBE@?$AAa?$AAz?$AA?9?$AAA?$AAZ?$AA?9?$AAC?$AAy?$AAr?$AAl?$AA?$AA@ 1001c274     LIBCMT:winapinls.obj
 0002:0000328c       ??_C@_1M@KEJDAAHB@?$AAs?$AAe?$AA?9?$AAS?$AAE?$AA?$AA@ 1001c28c     LIBCMT:winapinls.obj
 0002:00003298       ??_C@_1M@HEIBJJAD@?$AAm?$AAs?$AA?9?$AAB?$AAN?$AA?$AA@ 1001c298     LIBCMT:winapinls.obj
 0002:000032a4       ??_C@_1BG@PBGJMCEM@?$AAu?$AAz?$AA?9?$AAU?$AAZ?$AA?9?$AAC?$AAy?$AAr?$AAl?$AA?$AA@ 1001c2a4     LIBCMT:winapinls.obj
 0002:000032bc       ??_C@_1O@LAOBCMDF@?$AAq?$AAu?$AAz?$AA?9?$AAE?$AAC?$AA?$AA@ 1001c2bc     LIBCMT:winapinls.obj
 0002:000032cc       ??_C@_1M@POEEMAIO@?$AAa?$AAr?$AA?9?$AAE?$AAG?$AA?$AA@ 1001c2cc     LIBCMT:winapinls.obj
 0002:000032d8       ??_C@_1M@EFAKDEDL@?$AAz?$AAh?$AA?9?$AAH?$AAK?$AA?$AA@ 1001c2d8     LIBCMT:winapinls.obj
 0002:000032e4       ??_C@_1M@HKKIJHGI@?$AAd?$AAe?$AA?9?$AAA?$AAT?$AA?$AA@ 1001c2e4     LIBCMT:winapinls.obj
 0002:000032f0       ??_C@_1M@KBFBEHJF@?$AAe?$AAn?$AA?9?$AAA?$AAU?$AA?$AA@ 1001c2f0     LIBCMT:winapinls.obj
 0002:000032fc       ??_C@_1M@MNPLFAAH@?$AAe?$AAs?$AA?9?$AAE?$AAS?$AA?$AA@ 1001c2fc     LIBCMT:winapinls.obj
 0002:00003308       ??_C@_1M@HJOOJFMA@?$AAf?$AAr?$AA?9?$AAC?$AAA?$AA?$AA@ 1001c308     LIBCMT:winapinls.obj
 0002:00003314       ??_C@_1BG@JPOFPNAB@?$AAs?$AAr?$AA?9?$AAS?$AAP?$AA?9?$AAC?$AAy?$AAr?$AAl?$AA?$AA@ 1001c314     LIBCMT:winapinls.obj
 0002:0000332c       ??_C@_1M@LNFOCMOB@?$AAs?$AAe?$AA?9?$AAF?$AAI?$AA?$AA@ 1001c32c     LIBCMT:winapinls.obj
 0002:00003338       ??_C@_1O@MGJBOAMB@?$AAq?$AAu?$AAz?$AA?9?$AAP?$AAE?$AA?$AA@ 1001c338     LIBCMT:winapinls.obj
 0002:00003348       ??_C@_1M@GJINLBOK@?$AAa?$AAr?$AA?9?$AAL?$AAY?$AA?$AA@ 1001c348     LIBCMT:winapinls.obj
 0002:00003354       ??_C@_1M@GGMNHJNL@?$AAz?$AAh?$AA?9?$AAS?$AAG?$AA?$AA@ 1001c354     LIBCMT:winapinls.obj
 0002:00003360       ??_C@_1M@HOIKODND@?$AAd?$AAe?$AA?9?$AAL?$AAU?$AA?$AA@ 1001c360     LIBCMT:winapinls.obj
 0002:0000336c       ??_C@_1M@DDOCCGFG@?$AAe?$AAn?$AA?9?$AAC?$AAA?$AA?$AA@ 1001c36c     LIBCMT:winapinls.obj
 0002:00003378       ??_C@_1M@BNOEMJLF@?$AAe?$AAs?$AA?9?$AAG?$AAT?$AA?$AA@ 1001c378     LIBCMT:winapinls.obj
 0002:00003384       ??_C@_1M@EOGNKEK@?$AAf?$AAr?$AA?9?$AAC?$AAH?$AA?$AA@ 1001c384     LIBCMT:winapinls.obj
 0002:00003390       ??_C@_1M@FLIDJFHL@?$AAh?$AAr?$AA?9?$AAB?$AAA?$AA?$AA@ 1001c390     LIBCMT:winapinls.obj
 0002:0000339c       ??_C@_1O@FMCELNAJ@?$AAs?$AAm?$AAj?$AA?9?$AAN?$AAO?$AA?$AA@ 1001c39c     LIBCMT:winapinls.obj
 0002:000033ac       ??_C@_1M@JHGLJMGJ@?$AAa?$AAr?$AA?9?$AAD?$AAZ?$AA?$AA@ 1001c3ac     LIBCMT:winapinls.obj
 0002:000033b8       ??_C@_1M@JKKFDCNP@?$AAz?$AAh?$AA?9?$AAM?$AAO?$AA?$AA@ 1001c3b8     LIBCMT:winapinls.obj
 0002:000033c4       ??_C@_1M@GEEFALPE@?$AAd?$AAe?$AA?9?$AAL?$AAI?$AA?$AA@ 1001c3c4     LIBCMT:winapinls.obj
 0002:000033d0       ??_C@_1M@IGEOFBG@?$AAe?$AAn?$AA?9?$AAN?$AAZ?$AA?$AA@ 1001c3d0     LIBCMT:winapinls.obj
 0002:000033dc       ??_C@_1M@KDBONEHP@?$AAe?$AAs?$AA?9?$AAC?$AAR?$AA?$AA@ 1001c3dc     LIBCMT:winapinls.obj
 0002:000033e8       ??_C@_1M@FHMDOHNN@?$AAf?$AAr?$AA?9?$AAL?$AAU?$AA?$AA@ 1001c3e8     LIBCMT:winapinls.obj
 0002:000033f4       ??_C@_1BG@NFKKMAFG@?$AAb?$AAs?$AA?9?$AAB?$AAA?$AA?9?$AAL?$AAa?$AAt?$AAn?$AA?$AA@ 1001c3f4     LIBCMT:winapinls.obj
 0002:0000340c       ??_C@_1O@IMNBEMCI@?$AAs?$AAm?$AAj?$AA?9?$AAS?$AAE?$AA?$AA@ 1001c40c     LIBCMT:winapinls.obj
 0002:0000341c       ??_C@_1M@DHHMBNDP@?$AAa?$AAr?$AA?9?$AAM?$AAA?$AA?$AA@ 1001c41c     LIBCMT:winapinls.obj
 0002:00003428       ??_C@_1M@BNBLJCGH@?$AAe?$AAn?$AA?9?$AAI?$AAE?$AA?$AA@ 1001c428     LIBCMT:winapinls.obj
 0002:00003434       ??_C@_1M@GEPAFMDL@?$AAe?$AAs?$AA?9?$AAP?$AAA?$AA?$AA@ 1001c434     LIBCMT:winapinls.obj
 0002:00003440       ??_C@_1M@OJONDMDL@?$AAf?$AAr?$AA?9?$AAM?$AAC?$AA?$AA@ 1001c440     LIBCMT:winapinls.obj
 0002:0000344c       ??_C@_1BG@OBCNFJB@?$AAs?$AAr?$AA?9?$AAB?$AAA?$AA?9?$AAL?$AAa?$AAt?$AAn?$AA?$AA@ 1001c44c     LIBCMT:winapinls.obj
 0002:00003464       ??_C@_1O@KEMEEGPO@?$AAs?$AAm?$AAa?$AA?9?$AAN?$AAO?$AA?$AA@ 1001c464     LIBCMT:winapinls.obj
 0002:00003474       ??_C@_1M@ELMGFODK@?$AAa?$AAr?$AA?9?$AAT?$AAN?$AA?$AA@ 1001c474     LIBCMT:winapinls.obj
 0002:00003480       ??_C@_1M@BHDLHFAF@?$AAe?$AAn?$AA?9?$AAZ?$AAA?$AA?$AA@ 1001c480     LIBCMT:winapinls.obj
 0002:0000348c       ??_C@_1M@BMGIGLIF@?$AAe?$AAs?$AA?9?$AAD?$AAO?$AA?$AA@ 1001c48c     LIBCMT:winapinls.obj
 0002:00003498       ??_C@_1BG@CMBHIPBE@?$AAs?$AAr?$AA?9?$AAB?$AAA?$AA?9?$AAC?$AAy?$AAr?$AAl?$AA?$AA@ 1001c498     LIBCMT:winapinls.obj
 0002:000034b0       ??_C@_1O@HEDBLHNP@?$AAs?$AAm?$AAa?$AA?9?$AAS?$AAE?$AA?$AA@ 1001c4b0     LIBCMT:winapinls.obj
 0002:000034c0       ??_C@_1M@DAGCADIM@?$AAa?$AAr?$AA?9?$AAO?$AAM?$AA?$AA@ 1001c4c0     LIBCMT:winapinls.obj
 0002:000034cc       ??_C@_1M@FODLMICG@?$AAe?$AAn?$AA?9?$AAJ?$AAM?$AA?$AA@ 1001c4cc     LIBCMT:winapinls.obj
 0002:000034d8       ??_C@_1M@DNMLCIHB@?$AAe?$AAs?$AA?9?$AAV?$AAE?$AA?$AA@ 1001c4d8     LIBCMT:winapinls.obj
 0002:000034e4       ??_C@_1O@EOKHMKJK@?$AAs?$AAm?$AAs?$AA?9?$AAF?$AAI?$AA?$AA@ 1001c4e4     LIBCMT:winapinls.obj
 0002:000034f4       ??_C@_1M@CAFJMKOF@?$AAa?$AAr?$AA?9?$AAY?$AAE?$AA?$AA@ 1001c4f4     LIBCMT:winapinls.obj
 0002:00003500       ??_C@_1M@CBFHIJLI@?$AAe?$AAn?$AA?9?$AAC?$AAB?$AA?$AA@ 1001c500     LIBCMT:winapinls.obj
 0002:0000350c       ??_C@_1M@BGNFLDN@?$AAe?$AAs?$AA?9?$AAC?$AAO?$AA?$AA@ 1001c50c     LIBCMT:winapinls.obj
 0002:00003518       ??_C@_1O@JMPHMAMC@?$AAs?$AAm?$AAn?$AA?9?$AAF?$AAI?$AA?$AA@ 1001c518     LIBCMT:winapinls.obj
 0002:00003528       ??_C@_1M@JLANABKE@?$AAa?$AAr?$AA?9?$AAS?$AAY?$AA?$AA@ 1001c528     LIBCMT:winapinls.obj
 0002:00003534       ??_C@_1M@HPKGCFGN@?$AAe?$AAn?$AA?9?$AAB?$AAZ?$AA?$AA@ 1001c534     LIBCMT:winapinls.obj
 0002:00003540       ??_C@_1M@OLJCMLGM@?$AAe?$AAs?$AA?9?$AAP?$AAE?$AA?$AA@ 1001c540     LIBCMT:winapinls.obj
 0002:0000354c       ??_C@_1M@MKKGFKLE@?$AAa?$AAr?$AA?9?$AAJ?$AAO?$AA?$AA@ 1001c54c     LIBCMT:winapinls.obj
 0002:00003558       ??_C@_1M@EKPGLDNI@?$AAe?$AAn?$AA?9?$AAT?$AAT?$AA?$AA@ 1001c558     LIBCMT:winapinls.obj
 0002:00003564       ??_C@_1M@OONGHFHE@?$AAe?$AAs?$AA?9?$AAA?$AAR?$AA?$AA@ 1001c564     LIBCMT:winapinls.obj
 0002:00003570       ??_C@_1M@OOJFGBHE@?$AAa?$AAr?$AA?9?$AAL?$AAB?$AA?$AA@ 1001c570     LIBCMT:winapinls.obj
 0002:0000357c       ??_C@_1M@GCEJHNEG@?$AAe?$AAn?$AA?9?$AAZ?$AAW?$AA?$AA@ 1001c57c     LIBCMT:winapinls.obj
 0002:00003588       ??_C@_1M@JNOCAHJI@?$AAe?$AAs?$AA?9?$AAE?$AAC?$AA?$AA@ 1001c588     LIBCMT:winapinls.obj
 0002:00003594       ??_C@_1M@JEFHPGGB@?$AAa?$AAr?$AA?9?$AAK?$AAW?$AA?$AA@ 1001c594     LIBCMT:winapinls.obj
 0002:000035a0       ??_C@_1M@MLKIBJOJ@?$AAe?$AAn?$AA?9?$AAP?$AAH?$AA?$AA@ 1001c5a0     LIBCMT:winapinls.obj
 0002:000035ac       ??_C@_1M@BDNIPEND@?$AAe?$AAs?$AA?9?$AAC?$AAL?$AA?$AA@ 1001c5ac     LIBCMT:winapinls.obj
 0002:000035b8       ??_C@_1M@MPNMEKBD@?$AAa?$AAr?$AA?9?$AAA?$AAE?$AA?$AA@ 1001c5b8     LIBCMT:winapinls.obj
 0002:000035c4       ??_C@_1M@KBJALCPI@?$AAe?$AAs?$AA?9?$AAU?$AAY?$AA?$AA@ 1001c5c4     LIBCMT:winapinls.obj
 0002:000035d0       ??_C@_1M@LLCCOAGA@?$AAa?$AAr?$AA?9?$AAB?$AAH?$AA?$AA@ 1001c5d0     LIBCMT:winapinls.obj
 0002:000035dc       ??_C@_1M@PBFNCDEL@?$AAe?$AAs?$AA?9?$AAP?$AAY?$AA?$AA@ 1001c5dc     LIBCMT:winapinls.obj
 0002:000035e8       ??_C@_1M@EDGINPNP@?$AAa?$AAr?$AA?9?$AAQ?$AAA?$AA?$AA@ 1001c5e8     LIBCMT:winapinls.obj
 0002:000035f4       ??_C@_1M@MKDBIIJI@?$AAe?$AAs?$AA?9?$AAB?$AAO?$AA?$AA@ 1001c5f4     LIBCMT:winapinls.obj
 0002:00003600       ??_C@_1M@CPKKEBLD@?$AAe?$AAs?$AA?9?$AAS?$AAV?$AA?$AA@ 1001c600     LIBCMT:winapinls.obj
 0002:0000360c       ??_C@_1M@NDBGMMJL@?$AAe?$AAs?$AA?9?$AAH?$AAN?$AA?$AA@ 1001c60c     LIBCMT:winapinls.obj
 0002:00003618       ??_C@_1M@JIJIBHDP@?$AAe?$AAs?$AA?9?$AAN?$AAI?$AA?$AA@ 1001c618     LIBCMT:winapinls.obj
 0002:00003624       ??_C@_1M@CGFMKEEK@?$AAe?$AAs?$AA?9?$AAP?$AAR?$AA?$AA@ 1001c624     LIBCMT:winapinls.obj
 0002:00003630       ??_C@_1O@ICJHKIIK@?$AAz?$AAh?$AA?9?$AAC?$AAH?$AAT?$AA?$AA@ 1001c630     LIBCMT:winapinls.obj
 0002:00003640       ??_C@_15CLNEJCE@?$AAs?$AAr?$AA?$AA@ 1001c640     LIBCMT:winapinls.obj
 0002:00003648       ??_C@_1M@KAHEKEIG@?$AAa?$AAf?$AA?9?$AAz?$AAa?$AA?$AA@ 1001c648     LIBCMT:winapinls.obj
 0002:00003654       ??_C@_1M@GIECOABL@?$AAa?$AAr?$AA?9?$AAa?$AAe?$AA?$AA@ 1001c654     LIBCMT:winapinls.obj
 0002:00003660       ??_C@_1M@BMLMEKGI@?$AAa?$AAr?$AA?9?$AAb?$AAh?$AA?$AA@ 1001c660     LIBCMT:winapinls.obj
 0002:0000366c       ??_C@_1M@DAPFDGGB@?$AAa?$AAr?$AA?9?$AAd?$AAz?$AA?$AA@ 1001c66c     LIBCMT:winapinls.obj
 0002:00003678       ??_C@_1M@FJNKGKIG@?$AAa?$AAr?$AA?9?$AAe?$AAg?$AA?$AA@ 1001c678     LIBCMT:winapinls.obj
 0002:00003684       ??_C@_1M@FLGKKCLO@?$AAa?$AAr?$AA?9?$AAi?$AAq?$AA?$AA@ 1001c684     LIBCMT:winapinls.obj
 0002:00003690       ??_C@_1M@GNDIPALM@?$AAa?$AAr?$AA?9?$AAj?$AAo?$AA?$AA@ 1001c690     LIBCMT:winapinls.obj
 0002:0000369c       ??_C@_1M@DDMJFMGJ@?$AAa?$AAr?$AA?9?$AAk?$AAw?$AA?$AA@ 1001c69c     LIBCMT:winapinls.obj
 0002:000036a8       ??_C@_1M@EJALMLHM@?$AAa?$AAr?$AA?9?$AAl?$AAb?$AA?$AA@ 1001c6a8     LIBCMT:winapinls.obj
 0002:000036b4       ??_C@_1M@MOBDBLOC@?$AAa?$AAr?$AA?9?$AAl?$AAy?$AA?$AA@ 1001c6b4     LIBCMT:winapinls.obj
 0002:000036c0       ??_C@_1M@JAOCLHDH@?$AAa?$AAr?$AA?9?$AAm?$AAa?$AA?$AA@ 1001c6c0     LIBCMT:winapinls.obj
 0002:000036cc       ??_C@_1M@JHPMKJIE@?$AAa?$AAr?$AA?9?$AAo?$AAm?$AA?$AA@ 1001c6cc     LIBCMT:winapinls.obj
 0002:000036d8       ??_C@_1M@OEPGHFNH@?$AAa?$AAr?$AA?9?$AAq?$AAa?$AA?$AA@ 1001c6d8     LIBCMT:winapinls.obj
 0002:000036e4       ??_C@_1M@KJDONENM@?$AAa?$AAr?$AA?9?$AAs?$AAa?$AA?$AA@ 1001c6e4     LIBCMT:winapinls.obj
 0002:000036f0       ??_C@_1M@DMJDKLKM@?$AAa?$AAr?$AA?9?$AAs?$AAy?$AA?$AA@ 1001c6f0     LIBCMT:winapinls.obj
 0002:000036fc       ??_C@_1M@OMFIPEDC@?$AAa?$AAr?$AA?9?$AAt?$AAn?$AA?$AA@ 1001c6fc     LIBCMT:winapinls.obj
 0002:00003708       ??_C@_1M@IHMHGAON@?$AAa?$AAr?$AA?9?$AAy?$AAe?$AA?$AA@ 1001c708     LIBCMT:winapinls.obj
 0002:00003714       ??_C@_1BG@KDCPGJGB@?$AAa?$AAz?$AA?9?$AAa?$AAz?$AA?9?$AAc?$AAy?$AAr?$AAl?$AA?$AA@ 1001c714     LIBCMT:winapinls.obj
 0002:0000372c       ??_C@_1BG@IBCKDDOE@?$AAa?$AAz?$AA?9?$AAa?$AAz?$AA?9?$AAl?$AAa?$AAt?$AAn?$AA?$AA@ 1001c72c     LIBCMT:winapinls.obj
 0002:00003744       ??_C@_1M@EGPFDCPD@?$AAb?$AAe?$AA?9?$AAb?$AAy?$AA?$AA@ 1001c744     LIBCMT:winapinls.obj
 0002:00003750       ??_C@_1M@PCMGMCGC@?$AAb?$AAg?$AA?9?$AAb?$AAg?$AA?$AA@ 1001c750     LIBCMT:winapinls.obj
 0002:0000375c       ??_C@_1M@BJBMFGOB@?$AAb?$AAn?$AA?9?$AAi?$AAn?$AA?$AA@ 1001c75c     LIBCMT:winapinls.obj
 0002:00003768       ??_C@_1BG@EAKMMACD@?$AAb?$AAs?$AA?9?$AAb?$AAa?$AA?9?$AAl?$AAa?$AAt?$AAn?$AA?$AA@ 1001c768     LIBCMT:winapinls.obj
 0002:00003780       ??_C@_1M@KGADAODK@?$AAc?$AAa?$AA?9?$AAe?$AAs?$AA?$AA@ 1001c780     LIBCMT:winapinls.obj
 0002:0000378c       ??_C@_1M@COAJPDHI@?$AAc?$AAs?$AA?9?$AAc?$AAz?$AA?$AA@ 1001c78c     LIBCMT:winapinls.obj
 0002:00003798       ??_C@_1M@DHBHFONH@?$AAc?$AAy?$AA?9?$AAg?$AAb?$AA?$AA@ 1001c798     LIBCMT:winapinls.obj
 0002:000037a4       ??_C@_1M@IMGKELGA@?$AAd?$AAa?$AA?9?$AAd?$AAk?$AA?$AA@ 1001c7a4     LIBCMT:winapinls.obj
 0002:000037b0       ??_C@_1M@NNDGDNGA@?$AAd?$AAe?$AA?9?$AAa?$AAt?$AA?$AA@ 1001c7b0     LIBCMT:winapinls.obj
 0002:000037bc       ??_C@_1M@IKDBHEEM@?$AAd?$AAe?$AA?9?$AAc?$AAh?$AA?$AA@ 1001c7bc     LIBCMT:winapinls.obj
 0002:000037c8       ??_C@_1M@GFFOJMCJ@?$AAd?$AAe?$AA?9?$AAd?$AAe?$AA?$AA@ 1001c7c8     LIBCMT:winapinls.obj
 0002:000037d4       ??_C@_1M@MDNLKBPM@?$AAd?$AAe?$AA?9?$AAl?$AAi?$AA?$AA@ 1001c7d4     LIBCMT:winapinls.obj
 0002:000037e0       ??_C@_1M@NJBEEJNL@?$AAd?$AAe?$AA?9?$AAl?$AAu?$AA?$AA@ 1001c7e0     LIBCMT:winapinls.obj
 0002:000037ec       ??_C@_1O@GNNELBAP@?$AAd?$AAi?$AAv?$AA?9?$AAm?$AAv?$AA?$AA@ 1001c7ec     LIBCMT:winapinls.obj
 0002:000037fc       ??_C@_1M@EJLEOGAE@?$AAe?$AAl?$AA?9?$AAg?$AAr?$AA?$AA@ 1001c7fc     LIBCMT:winapinls.obj
 0002:00003808       ??_C@_1M@GMPONJN@?$AAe?$AAn?$AA?9?$AAa?$AAu?$AA?$AA@ 1001c808     LIBCMT:winapinls.obj
 0002:00003814       ??_C@_1M@NIDIIPGF@?$AAe?$AAn?$AA?9?$AAb?$AAz?$AA?$AA@ 1001c814     LIBCMT:winapinls.obj
 0002:00003820       ??_C@_1M@JEHMIMFO@?$AAe?$AAn?$AA?9?$AAc?$AAa?$AA?$AA@ 1001c820     LIBCMT:winapinls.obj
 0002:0000382c       ??_C@_1M@IGMJCDLA@?$AAe?$AAn?$AA?9?$AAc?$AAb?$AA?$AA@ 1001c82c     LIBCMT:winapinls.obj
 0002:00003838       ??_C@_1M@BNFIGBKG@?$AAe?$AAn?$AA?9?$AAg?$AAb?$AA?$AA@ 1001c838     LIBCMT:winapinls.obj
 0002:00003844       ??_C@_1M@LKIFDIGP@?$AAe?$AAn?$AA?9?$AAi?$AAe?$AA?$AA@ 1001c844     LIBCMT:winapinls.obj
 0002:00003850       ??_C@_1M@PJKFGCCO@?$AAe?$AAn?$AA?9?$AAj?$AAm?$AA?$AA@ 1001c850     LIBCMT:winapinls.obj
 0002:0000385c       ??_C@_1M@KPPKEPBO@?$AAe?$AAn?$AA?9?$AAn?$AAz?$AA?$AA@ 1001c85c     LIBCMT:winapinls.obj
 0002:00003868       ??_C@_1M@GMDGLDOB@?$AAe?$AAn?$AA?9?$AAp?$AAh?$AA?$AA@ 1001c868     LIBCMT:winapinls.obj
 0002:00003874       ??_C@_1M@ONGIBJNA@?$AAe?$AAn?$AA?9?$AAt?$AAt?$AA?$AA@ 1001c874     LIBCMT:winapinls.obj
 0002:00003880       ??_C@_1M@LLODPCMM@?$AAe?$AAn?$AA?9?$AAu?$AAs?$AA?$AA@ 1001c880     LIBCMT:winapinls.obj
 0002:0000388c       ??_C@_1M@LAKFNPAN@?$AAe?$AAn?$AA?9?$AAz?$AAa?$AA?$AA@ 1001c88c     LIBCMT:winapinls.obj
 0002:00003898       ??_C@_1M@MFNHNHEO@?$AAe?$AAn?$AA?9?$AAz?$AAw?$AA?$AA@ 1001c898     LIBCMT:winapinls.obj
 0002:000038a4       ??_C@_1M@EJEINPHM@?$AAe?$AAs?$AA?9?$AAa?$AAr?$AA?$AA@ 1001c8a4     LIBCMT:winapinls.obj
 0002:000038b0       ??_C@_1M@GNKPCCJA@?$AAe?$AAs?$AA?9?$AAb?$AAo?$AA?$AA@ 1001c8b0     LIBCMT:winapinls.obj
 0002:000038bc       ??_C@_1M@LEEGFONL@?$AAe?$AAs?$AA?9?$AAc?$AAl?$AA?$AA@ 1001c8bc     LIBCMT:winapinls.obj
 0002:000038c8       ??_C@_1M@KGPDPBDF@?$AAe?$AAs?$AA?9?$AAc?$AAo?$AA?$AA@ 1001c8c8     LIBCMT:winapinls.obj
 0002:000038d4       ??_C@_1M@EIAHOHH@?$AAe?$AAs?$AA?9?$AAc?$AAr?$AA?$AA@ 1001c8d4     LIBCMT:winapinls.obj
 0002:000038e0       ??_C@_1M@LLPGMBIN@?$AAe?$AAs?$AA?9?$AAd?$AAo?$AA?$AA@ 1001c8e0     LIBCMT:winapinls.obj
 0002:000038ec       ??_C@_1M@DKHMKNJA@?$AAe?$AAs?$AA?9?$AAe?$AAc?$AA?$AA@ 1001c8ec     LIBCMT:winapinls.obj
 0002:000038f8       ??_C@_1M@GKGFPKAP@?$AAe?$AAs?$AA?9?$AAe?$AAs?$AA?$AA@ 1001c8f8     LIBCMT:winapinls.obj
 0002:00003904       ??_C@_1M@LKHKGDLN@?$AAe?$AAs?$AA?9?$AAg?$AAt?$AA?$AA@ 1001c904     LIBCMT:winapinls.obj
 0002:00003910       ??_C@_1M@HEIIGGJD@?$AAe?$AAs?$AA?9?$AAh?$AAn?$AA?$AA@ 1001c910     LIBCMT:winapinls.obj
 0002:0000391c       ??_C@_1M@FBDHPPGD@?$AAe?$AAs?$AA?9?$AAm?$AAx?$AA?$AA@ 1001c91c     LIBCMT:winapinls.obj
 0002:00003928       ??_C@_1M@DPAGLNDH@?$AAe?$AAs?$AA?9?$AAn?$AAi?$AA?$AA@ 1001c928     LIBCMT:winapinls.obj
 0002:00003934       ??_C@_1M@MDGOPGDD@?$AAe?$AAs?$AA?9?$AAp?$AAa?$AA?$AA@ 1001c934     LIBCMT:winapinls.obj
 0002:00003940       ??_C@_1M@EMAMGBGE@?$AAe?$AAs?$AA?9?$AAp?$AAe?$AA?$AA@ 1001c940     LIBCMT:winapinls.obj
 0002:0000394c       ??_C@_1M@IBMCAOEC@?$AAe?$AAs?$AA?9?$AAp?$AAr?$AA?$AA@ 1001c94c     LIBCMT:winapinls.obj
 0002:00003958       ??_C@_1M@FGMDIJED@?$AAe?$AAs?$AA?9?$AAp?$AAy?$AA?$AA@ 1001c958     LIBCMT:winapinls.obj
 0002:00003964       ??_C@_1M@IIDEOLLL@?$AAe?$AAs?$AA?9?$AAs?$AAv?$AA?$AA@ 1001c964     LIBCMT:winapinls.obj
 0002:00003970       ??_C@_1M@GAOBIPA@?$AAe?$AAs?$AA?9?$AAu?$AAy?$AA?$AA@ 1001c970     LIBCMT:winapinls.obj
 0002:0000397c       ??_C@_1M@JKFFICHJ@?$AAe?$AAs?$AA?9?$AAv?$AAe?$AA?$AA@ 1001c97c     LIBCMT:winapinls.obj
 0002:00003988       ??_C@_1M@PNMLOJDF@?$AAe?$AAt?$AA?9?$AAe?$AAe?$AA?$AA@ 1001c988     LIBCMT:winapinls.obj
 0002:00003994       ??_C@_1M@GHHLIKEI@?$AAe?$AAu?$AA?9?$AAe?$AAs?$AA?$AA@ 1001c994     LIBCMT:winapinls.obj
 0002:000039a0       ??_C@_1M@PBNONODE@?$AAf?$AAa?$AA?9?$AAi?$AAr?$AA?$AA@ 1001c9a0     LIBCMT:winapinls.obj
 0002:000039ac       ??_C@_1M@JEEHPMIL@?$AAf?$AAi?$AA?9?$AAf?$AAi?$AA?$AA@ 1001c9ac     LIBCMT:winapinls.obj
 0002:000039b8       ??_C@_1M@LMDCNDBA@?$AAf?$AAo?$AA?9?$AAf?$AAo?$AA?$AA@ 1001c9b8     LIBCMT:winapinls.obj
 0002:000039c4       ??_C@_1M@JKEOHLDK@?$AAf?$AAr?$AA?9?$AAb?$AAe?$AA?$AA@ 1001c9c4     LIBCMT:winapinls.obj
 0002:000039d0       ??_C@_1M@NOHADPMI@?$AAf?$AAr?$AA?9?$AAc?$AAa?$AA?$AA@ 1001c9d0     LIBCMT:winapinls.obj
 0002:000039dc       ??_C@_1M@KDHIHAEC@?$AAf?$AAr?$AA?9?$AAc?$AAh?$AA?$AA@ 1001c9dc     LIBCMT:winapinls.obj
 0002:000039e8       ??_C@_1M@MMBBFGAK@?$AAf?$AAr?$AA?9?$AAf?$AAr?$AA?$AA@ 1001c9e8     LIBCMT:winapinls.obj
 0002:000039f4       ??_C@_1M@PAFNENNF@?$AAf?$AAr?$AA?9?$AAl?$AAu?$AA?$AA@ 1001c9f4     LIBCMT:winapinls.obj
 0002:00003a00       ??_C@_1M@EOHDJGDD@?$AAf?$AAr?$AA?9?$AAm?$AAc?$AA?$AA@ 1001ca00     LIBCMT:winapinls.obj
 0002:00003a0c       ??_C@_1M@FAPLLOPF@?$AAg?$AAl?$AA?9?$AAe?$AAs?$AA?$AA@ 1001ca0c     LIBCMT:winapinls.obj
 0002:00003a18       ??_C@_1M@FOPBFLOO@?$AAg?$AAu?$AA?9?$AAi?$AAn?$AA?$AA@ 1001ca18     LIBCMT:winapinls.obj
 0002:00003a24       ??_C@_1M@KBMCINPM@?$AAh?$AAe?$AA?9?$AAi?$AAl?$AA?$AA@ 1001ca24     LIBCMT:winapinls.obj
 0002:00003a30       ??_C@_1M@BBPHKFPJ@?$AAh?$AAi?$AA?9?$AAi?$AAn?$AA?$AA@ 1001ca30     LIBCMT:winapinls.obj
 0002:00003a3c       ??_C@_1M@PMBNDPHD@?$AAh?$AAr?$AA?9?$AAb?$AAa?$AA?$AA@ 1001ca3c     LIBCMT:winapinls.obj
 0002:00003a48       ??_C@_1M@BPCKOEGE@?$AAh?$AAr?$AA?9?$AAh?$AAr?$AA?$AA@ 1001ca48     LIBCMT:winapinls.obj
 0002:00003a54       ??_C@_1M@GACBMHKE@?$AAh?$AAu?$AA?9?$AAh?$AAu?$AA?$AA@ 1001ca54     LIBCMT:winapinls.obj
 0002:00003a60       ??_C@_1M@MILPAJJC@?$AAh?$AAy?$AA?9?$AAa?$AAm?$AA?$AA@ 1001ca60     LIBCMT:winapinls.obj
 0002:00003a6c       ??_C@_1M@BABBICEC@?$AAi?$AAd?$AA?9?$AAi?$AAd?$AA?$AA@ 1001ca6c     LIBCMT:winapinls.obj
 0002:00003a78       ??_C@_1M@BIKNHHPF@?$AAi?$AAs?$AA?9?$AAi?$AAs?$AA?$AA@ 1001ca78     LIBCMT:winapinls.obj
 0002:00003a84       ??_C@_1M@NMPCJPHE@?$AAi?$AAt?$AA?9?$AAc?$AAh?$AA?$AA@ 1001ca84     LIBCMT:winapinls.obj
 0002:00003a90       ??_C@_1M@GHKGFEDF@?$AAi?$AAt?$AA?9?$AAi?$AAt?$AA?$AA@ 1001ca90     LIBCMT:winapinls.obj
 0002:00003a9c       ??_C@_1M@NIEJCJJA@?$AAj?$AAa?$AA?9?$AAj?$AAp?$AA?$AA@ 1001ca9c     LIBCMT:winapinls.obj
 0002:00003aa8       ??_C@_1M@JILFNBIM@?$AAk?$AAa?$AA?9?$AAg?$AAe?$AA?$AA@ 1001caa8     LIBCMT:winapinls.obj
 0002:00003ab4       ??_C@_1M@PACPMGPH@?$AAk?$AAk?$AA?9?$AAk?$AAz?$AA?$AA@ 1001cab4     LIBCMT:winapinls.obj
 0002:00003ac0       ??_C@_1M@IELFGMHA@?$AAk?$AAn?$AA?9?$AAi?$AAn?$AA?$AA@ 1001cac0     LIBCMT:winapinls.obj
 0002:00003acc       ??_C@_1O@IBBJHCH@?$AAk?$AAo?$AAk?$AA?9?$AAi?$AAn?$AA?$AA@ 1001cacc     LIBCMT:winapinls.obj
 0002:00003adc       ??_C@_1M@DMHAEOGC@?$AAk?$AAo?$AA?9?$AAk?$AAr?$AA?$AA@ 1001cadc     LIBCMT:winapinls.obj
 0002:00003ae8       ??_C@_1M@HBAHBIGA@?$AAk?$AAy?$AA?9?$AAk?$AAg?$AA?$AA@ 1001cae8     LIBCMT:winapinls.obj
 0002:00003af4       ??_C@_1M@KPMILCJG@?$AAl?$AAt?$AA?9?$AAl?$AAt?$AA?$AA@ 1001caf4     LIBCMT:winapinls.obj
 0002:00003b00       ??_C@_1M@BDEKKCA@?$AAl?$AAv?$AA?9?$AAl?$AAv?$AA?$AA@ 1001cb00     LIBCMT:winapinls.obj
 0002:00003b0c       ??_C@_1M@ELCKCCJJ@?$AAm?$AAi?$AA?9?$AAn?$AAz?$AA?$AA@ 1001cb0c     LIBCMT:winapinls.obj
 0002:00003b18       ??_C@_1M@CBOOLAPA@?$AAm?$AAk?$AA?9?$AAm?$AAk?$AA?$AA@ 1001cb18     LIBCMT:winapinls.obj
 0002:00003b24       ??_C@_1M@GPHNBJKN@?$AAm?$AAl?$AA?9?$AAi?$AAn?$AA?$AA@ 1001cb24     LIBCMT:winapinls.obj
 0002:00003b30       ??_C@_1M@PABJILIG@?$AAm?$AAn?$AA?9?$AAm?$AAn?$AA?$AA@ 1001cb30     LIBCMT:winapinls.obj
 0002:00003b3c       ??_C@_1M@FGBKKIPG@?$AAm?$AAr?$AA?9?$AAi?$AAn?$AA?$AA@ 1001cb3c     LIBCMT:winapinls.obj
 0002:00003b48       ??_C@_1M@NDBPDDAL@?$AAm?$AAs?$AA?9?$AAb?$AAn?$AA?$AA@ 1001cb48     LIBCMT:winapinls.obj
 0002:00003b54       ??_C@_1M@OPIHOOPI@?$AAm?$AAs?$AA?9?$AAm?$AAy?$AA?$AA@ 1001cb54     LIBCMT:winapinls.obj
 0002:00003b60       ??_C@_1M@PPDBCNFM@?$AAm?$AAt?$AA?9?$AAm?$AAt?$AA?$AA@ 1001cb60     LIBCMT:winapinls.obj
 0002:00003b6c       ??_C@_1M@KDJDKMDD@?$AAn?$AAb?$AA?9?$AAn?$AAo?$AA?$AA@ 1001cb6c     LIBCMT:winapinls.obj
 0002:00003b78       ??_C@_1M@KFCFLMJP@?$AAn?$AAl?$AA?9?$AAb?$AAe?$AA?$AA@ 1001cb78     LIBCMT:winapinls.obj
 0002:00003b84       ??_C@_1M@KPOPDDGO@?$AAn?$AAl?$AA?9?$AAn?$AAl?$AA?$AA@ 1001cb84     LIBCMT:winapinls.obj
 0002:00003b90       ??_C@_1M@LJKPEMLN@?$AAn?$AAn?$AA?9?$AAn?$AAo?$AA?$AA@ 1001cb90     LIBCMT:winapinls.obj
 0002:00003b9c       ??_C@_1M@BDGHHBFL@?$AAn?$AAs?$AA?9?$AAz?$AAa?$AA?$AA@ 1001cb9c     LIBCMT:winapinls.obj
 0002:00003ba8       ??_C@_1M@IDEHOAP@?$AAp?$AAa?$AA?9?$AAi?$AAn?$AA?$AA@ 1001cba8     LIBCMT:winapinls.obj
 0002:00003bb4       ??_C@_1M@HDBKGOGH@?$AAp?$AAl?$AA?9?$AAp?$AAl?$AA?$AA@ 1001cbb4     LIBCMT:winapinls.obj
 0002:00003bc0       ??_C@_1M@LJLLCMEH@?$AAp?$AAt?$AA?9?$AAb?$AAr?$AA?$AA@ 1001cbc0     LIBCMT:winapinls.obj
 0002:00003bcc       ??_C@_1M@NCMONAAL@?$AAp?$AAt?$AA?9?$AAp?$AAt?$AA?$AA@ 1001cbcc     LIBCMT:winapinls.obj
 0002:00003bd8       ??_C@_1O@EAKMAJDN@?$AAq?$AAu?$AAz?$AA?9?$AAb?$AAo?$AA?$AA@ 1001cbd8     LIBCMT:winapinls.obj
 0002:00003be8       ??_C@_1O@BHHPIGDN@?$AAq?$AAu?$AAz?$AA?9?$AAe?$AAc?$AA?$AA@ 1001cbe8     LIBCMT:winapinls.obj
 0002:00003bf8       ??_C@_1O@GBAPEKMJ@?$AAq?$AAu?$AAz?$AA?9?$AAp?$AAe?$AA?$AA@ 1001cbf8     LIBCMT:winapinls.obj
 0002:00003c08       ??_C@_1M@CLGLEFBO@?$AAr?$AAo?$AA?9?$AAr?$AAo?$AA?$AA@ 1001cc08     LIBCMT:winapinls.obj
 0002:00003c14       ??_C@_1M@CEEDODME@?$AAr?$AAu?$AA?9?$AAr?$AAu?$AA?$AA@ 1001cc14     LIBCMT:winapinls.obj
 0002:00003c20       ??_C@_1M@HPKKKMPP@?$AAs?$AAa?$AA?9?$AAi?$AAn?$AA?$AA@ 1001cc20     LIBCMT:winapinls.obj
 0002:00003c2c       ??_C@_1M@BKMAIGOJ@?$AAs?$AAe?$AA?9?$AAf?$AAi?$AA?$AA@ 1001cc2c     LIBCMT:winapinls.obj
 0002:00003c38       ??_C@_1M@NDPIFLFI@?$AAs?$AAe?$AA?9?$AAn?$AAo?$AA?$AA@ 1001cc38     LIBCMT:winapinls.obj
 0002:00003c44       ??_C@_1M@DANKKHJ@?$AAs?$AAe?$AA?9?$AAs?$AAe?$AA?$AA@ 1001cc44     LIBCMT:winapinls.obj
 0002:00003c50       ??_C@_1M@PNBLONPJ@?$AAs?$AAk?$AA?9?$AAs?$AAk?$AA?$AA@ 1001cc50     LIBCMT:winapinls.obj
 0002:00003c5c       ??_C@_1M@LFMODOAL@?$AAs?$AAl?$AA?9?$AAs?$AAi?$AA?$AA@ 1001cc5c     LIBCMT:winapinls.obj
 0002:00003c68       ??_C@_1O@DFKOMPG@?$AAs?$AAm?$AAa?$AA?9?$AAn?$AAo?$AA?$AA@ 1001cc68     LIBCMT:winapinls.obj
 0002:00003c78       ??_C@_1O@NDKPBNNH@?$AAs?$AAm?$AAa?$AA?9?$AAs?$AAe?$AA?$AA@ 1001cc78     LIBCMT:winapinls.obj
 0002:00003c88       ??_C@_1O@PLLKBHAB@?$AAs?$AAm?$AAj?$AA?9?$AAn?$AAo?$AA?$AA@ 1001cc88     LIBCMT:winapinls.obj
 0002:00003c98       ??_C@_1O@CLEPOGCA@?$AAs?$AAm?$AAj?$AA?9?$AAs?$AAe?$AA?$AA@ 1001cc98     LIBCMT:winapinls.obj
 0002:00003ca8       ??_C@_1O@DLGJGKMK@?$AAs?$AAm?$AAn?$AA?9?$AAf?$AAi?$AA?$AA@ 1001cca8     LIBCMT:winapinls.obj
 0002:00003cb8       ??_C@_1O@OJDJGAJC@?$AAs?$AAm?$AAs?$AA?9?$AAf?$AAi?$AA?$AA@ 1001ccb8     LIBCMT:winapinls.obj
 0002:00003cc8       ??_C@_1M@BOFOGHPB@?$AAs?$AAq?$AA?9?$AAa?$AAl?$AA?$AA@ 1001ccc8     LIBCMT:winapinls.obj
 0002:00003cd4       ??_C@_1BG@LJBBIPGB@?$AAs?$AAr?$AA?9?$AAb?$AAa?$AA?9?$AAc?$AAy?$AAr?$AAl?$AA?$AA@ 1001ccd4     LIBCMT:winapinls.obj
 0002:00003cec       ??_C@_1BG@JLBENFOE@?$AAs?$AAr?$AA?9?$AAb?$AAa?$AA?9?$AAl?$AAa?$AAt?$AAn?$AA?$AA@ 1001ccec     LIBCMT:winapinls.obj
 0002:00003d04       ??_C@_1BG@KODPNHE@?$AAs?$AAr?$AA?9?$AAs?$AAp?$AA?9?$AAc?$AAy?$AAr?$AAl?$AA?$AA@ 1001cd04     LIBCMT:winapinls.obj
 0002:00003d1c       ??_C@_1BG@CIOGKHPB@?$AAs?$AAr?$AA?9?$AAs?$AAp?$AA?9?$AAl?$AAa?$AAt?$AAn?$AA?$AA@ 1001cd1c     LIBCMT:winapinls.obj
 0002:00003d34       ??_C@_1M@NGFJLMAC@?$AAs?$AAv?$AA?9?$AAf?$AAi?$AA?$AA@ 1001cd34     LIBCMT:winapinls.obj
 0002:00003d40       ??_C@_1M@MPJEJAJC@?$AAs?$AAv?$AA?9?$AAs?$AAe?$AA?$AA@ 1001cd40     LIBCMT:winapinls.obj
 0002:00003d4c       ??_C@_1M@MPNDHLFK@?$AAs?$AAw?$AA?9?$AAk?$AAe?$AA?$AA@ 1001cd4c     LIBCMT:winapinls.obj
 0002:00003d58       ??_C@_1O@KOHBJJI@?$AAs?$AAy?$AAr?$AA?9?$AAs?$AAy?$AA?$AA@ 1001cd58     LIBCMT:winapinls.obj
 0002:00003d68       ??_C@_1M@LDCEFHA@?$AAt?$AAa?$AA?9?$AAi?$AAn?$AA?$AA@ 1001cd68     LIBCMT:winapinls.obj
 0002:00003d74       ??_C@_1M@CNJOFAK@?$AAt?$AAe?$AA?9?$AAi?$AAn?$AA?$AA@ 1001cd74     LIBCMT:winapinls.obj
 0002:00003d80       ??_C@_1M@GNAECACD@?$AAt?$AAh?$AA?9?$AAt?$AAh?$AA?$AA@ 1001cd80     LIBCMT:winapinls.obj
 0002:00003d8c       ??_C@_1M@CHBIHOJO@?$AAt?$AAn?$AA?9?$AAz?$AAa?$AA?$AA@ 1001cd8c     LIBCMT:winapinls.obj
 0002:00003d98       ??_C@_1M@GCCMIGPJ@?$AAt?$AAr?$AA?9?$AAt?$AAr?$AA?$AA@ 1001cd98     LIBCMT:winapinls.obj
 0002:00003da4       ??_C@_1M@CELMCNBK@?$AAt?$AAt?$AA?9?$AAr?$AAu?$AA?$AA@ 1001cda4     LIBCMT:winapinls.obj
 0002:00003db0       ??_C@_1M@KLMCELGA@?$AAu?$AAk?$AA?9?$AAu?$AAa?$AA?$AA@ 1001cdb0     LIBCMT:winapinls.obj
 0002:00003dbc       ??_C@_1M@EPAJJAJF@?$AAu?$AAr?$AA?9?$AAp?$AAk?$AA?$AA@ 1001cdbc     LIBCMT:winapinls.obj
 0002:00003dc8       ??_C@_1BG@GEGPMCDJ@?$AAu?$AAz?$AA?9?$AAu?$AAz?$AA?9?$AAc?$AAy?$AAr?$AAl?$AA?$AA@ 1001cdc8     LIBCMT:winapinls.obj
 0002:00003de0       ??_C@_1BG@EGGKJILM@?$AAu?$AAz?$AA?9?$AAu?$AAz?$AA?9?$AAl?$AAa?$AAt?$AAn?$AA?$AA@ 1001cde0     LIBCMT:winapinls.obj
 0002:00003df8       ??_C@_1M@GFOCLFF@?$AAv?$AAi?$AA?9?$AAv?$AAn?$AA?$AA@ 1001cdf8     LIBCMT:winapinls.obj
 0002:00003e04       ??_C@_1M@CPAMEDFI@?$AAx?$AAh?$AA?9?$AAz?$AAa?$AA?$AA@ 1001ce04     LIBCMT:winapinls.obj
 0002:00003e10       ??_C@_1O@EBKIFIGN@?$AAz?$AAh?$AA?9?$AAc?$AAh?$AAs?$AA?$AA@ 1001ce10     LIBCMT:winapinls.obj
 0002:00003e20       ??_C@_1O@NMHPGANE@?$AAz?$AAh?$AA?9?$AAc?$AAh?$AAt?$AA?$AA@ 1001ce20     LIBCMT:winapinls.obj
 0002:00003e30       ??_C@_1M@LPINJOMC@?$AAz?$AAh?$AA?9?$AAc?$AAn?$AA?$AA@ 1001ce30     LIBCMT:winapinls.obj
 0002:00003e3c       ??_C@_1M@OCJEJODD@?$AAz?$AAh?$AA?9?$AAh?$AAk?$AA?$AA@ 1001ce3c     LIBCMT:winapinls.obj
 0002:00003e48       ??_C@_1M@DNDLJINH@?$AAz?$AAh?$AA?9?$AAm?$AAo?$AA?$AA@ 1001ce48     LIBCMT:winapinls.obj
 0002:00003e54       ??_C@_1M@MBFDNDND@?$AAz?$AAh?$AA?9?$AAs?$AAg?$AA?$AA@ 1001ce54     LIBCMT:winapinls.obj
 0002:00003e60       ??_C@_1M@IMEPLEPE@?$AAz?$AAh?$AA?9?$AAt?$AAw?$AA?$AA@ 1001ce60     LIBCMT:winapinls.obj
 0002:00003e6c       ??_C@_1M@BBGHNHJP@?$AAz?$AAu?$AA?9?$AAz?$AAa?$AA?$AA@ 1001ce6c     LIBCMT:winapinls.obj
 0002:00003e80       ??_C@_1BI@BGOHAHKC@?$AAm?$AAs?$AAc?$AAo?$AAr?$AAe?$AAe?$AA?4?$AAd?$AAl?$AAl?$AA?$AA@ 1001ce80     LIBCMT:crt0dat.obj
 0002:00003e98       ??_C@_0P@MIGLKIOC@CorExitProcess?$AA@ 1001ce98     LIBCMT:crt0dat.obj
 0002:00003ea8       ??_C@_03KHJOGHMM@exp?$AA@  1001cea8     LIBCMT:fpexcept.obj
 0002:00003eac       ??_C@_03JGHBODFD@pow?$AA@  1001ceac     LIBCMT:fpexcept.obj
 0002:00003eb0       ??_C@_05HGHHAHAP@log10?$AA@ 1001ceb0     LIBCMT:fpexcept.obj
 0002:00003eb8       ??_C@_04COOMCNPB@sinh?$AA@ 1001ceb8     LIBCMT:fpexcept.obj
 0002:00003ec0       ??_C@_04HPJJNFIM@cosh?$AA@ 1001cec0     LIBCMT:fpexcept.obj
 0002:00003ec8       ??_C@_04FJHINJAO@tanh?$AA@ 1001cec8     LIBCMT:fpexcept.obj
 0002:00003ed0       ??_C@_04FIHNOPOL@asin?$AA@ 1001ced0     LIBCMT:fpexcept.obj
 0002:00003ed8       ??_C@_04PDIFKINK@acos?$AA@ 1001ced8     LIBCMT:fpexcept.obj
 0002:00003ee0       ??_C@_04MLLJIGOK@atan?$AA@ 1001cee0     LIBCMT:fpexcept.obj
 0002:00003ee8       ??_C@_05KNGEOGJB@atan2?$AA@ 1001cee8     LIBCMT:fpexcept.obj
 0002:00003ef0       ??_C@_04EIAKFFMI@sqrt?$AA@ 1001cef0     LIBCMT:fpexcept.obj
 0002:00003ef8       ??_C@_03BLEJJJBH@sin?$AA@  1001cef8     LIBCMT:fpexcept.obj
 0002:00003efc       ??_C@_03LALBNOCG@cos?$AA@  1001cefc     LIBCMT:fpexcept.obj
 0002:00003f00       ??_C@_03IIINPABG@tan?$AA@  1001cf00     LIBCMT:fpexcept.obj
 0002:00003f04       ??_C@_04GFPJNGEK@ceil?$AA@ 1001cf04     LIBCMT:fpexcept.obj
 0002:00003f0c       ??_C@_05PBJFFIGL@floor?$AA@ 1001cf0c     LIBCMT:fpexcept.obj
 0002:00003f14       ??_C@_04ODHECPBC@fabs?$AA@ 1001cf14     LIBCMT:fpexcept.obj
 0002:00003f1c       ??_C@_04EHEDPDJG@modf?$AA@ 1001cf1c     LIBCMT:fpexcept.obj
 0002:00003f24       ??_C@_05CEJMAHNP@ldexp?$AA@ 1001cf24     LIBCMT:fpexcept.obj
 0002:00003f2c       ??_C@_05KBKMEMPO@_cabs?$AA@ 1001cf2c     LIBCMT:fpexcept.obj
 0002:00003f34       ??_C@_06MEIMCGCF@_hypot?$AA@ 1001cf34     LIBCMT:fpexcept.obj
 0002:00003f3c       ??_C@_04KEPJIHGP@fmod?$AA@ 1001cf3c     LIBCMT:fpexcept.obj
 0002:00003f44       ??_C@_05GKKHEGJL@frexp?$AA@ 1001cf44     LIBCMT:fpexcept.obj
 0002:00003f4c       ??_C@_03MJLDFKDL@_y0?$AA@  1001cf4c     LIBCMT:fpexcept.obj
 0002:00003f50       ??_C@_03NAKIGLHK@_y1?$AA@  1001cf50     LIBCMT:fpexcept.obj
 0002:00003f54       ??_C@_03ONILCKOB@_yn?$AA@  1001cf54     LIBCMT:fpexcept.obj
 0002:00003f58       ??_C@_05JGDBENOH@_logb?$AA@ 1001cf58     LIBCMT:fpexcept.obj
 0002:00003f60       ??_C@_0L@KDOEJCKC@_nextafter?$AA@ 1001cf60     LIBCMT:fpexcept.obj
 0002:00003f7c       ??_C@_03KOEHGMDN@Sun?$AA@  1001cf7c     LIBCMT:nlsdata.obj
 0002:00003f80       ??_C@_03PDAGKDH@Mon?$AA@   1001cf80     LIBCMT:nlsdata.obj
 0002:00003f84       ??_C@_03NAGEINEP@Tue?$AA@  1001cf84     LIBCMT:nlsdata.obj
 0002:00003f88       ??_C@_03MHOMLAJA@Wed?$AA@  1001cf88     LIBCMT:nlsdata.obj
 0002:00003f8c       ??_C@_03IOFIKPDN@Thu?$AA@  1001cf8c     LIBCMT:nlsdata.obj
 0002:00003f90       ??_C@_03IDIOELNC@Fri?$AA@  1001cf90     LIBCMT:nlsdata.obj
 0002:00003f94       ??_C@_03FEFJNEK@Sat?$AA@   1001cf94     LIBCMT:nlsdata.obj
 0002:00003f98       ??_C@_06OOPIFAJ@Sunday?$AA@ 1001cf98     LIBCMT:nlsdata.obj
 0002:00003fa0       ??_C@_06JLEDEDGH@Monday?$AA@ 1001cfa0     LIBCMT:nlsdata.obj
 0002:00003fa8       ??_C@_07BAAGCFCM@Tuesday?$AA@ 1001cfa8     LIBCMT:nlsdata.obj
 0002:00003fb0       ??_C@_09DLIGFAKA@Wednesday?$AA@ 1001cfb0     LIBCMT:nlsdata.obj
 0002:00003fbc       ??_C@_08HACCIKIA@Thursday?$AA@ 1001cfbc     LIBCMT:nlsdata.obj
 0002:00003fc8       ??_C@_06JECMNKMI@Friday?$AA@ 1001cfc8     LIBCMT:nlsdata.obj
 0002:00003fd0       ??_C@_08INBOOONO@Saturday?$AA@ 1001cfd0     LIBCMT:nlsdata.obj
 0002:00003fdc       ??_C@_03JIHJHPIE@Jan?$AA@  1001cfdc     LIBCMT:nlsdata.obj
 0002:00003fe0       ??_C@_03HJBDCHOM@Feb?$AA@  1001cfe0     LIBCMT:nlsdata.obj
 0002:00003fe4       ??_C@_03ODNJBKGA@Mar?$AA@  1001cfe4     LIBCMT:nlsdata.obj
 0002:00003fe8       ??_C@_03LEOLGMJP@Apr?$AA@  1001cfe8     LIBCMT:nlsdata.obj
 0002:00003fec       ??_C@_03CNMDKL@May?$AA@    1001cfec     LIBCMT:nlsdata.obj
 0002:00003ff0       ??_C@_03IDFGHECI@Jun?$AA@  1001cff0     LIBCMT:nlsdata.obj
 0002:00003ff4       ??_C@_03LBGABGKK@Jul?$AA@  1001cff4     LIBCMT:nlsdata.obj
 0002:00003ff8       ??_C@_03IFJFEIGA@Aug?$AA@  1001cff8     LIBCMT:nlsdata.obj
 0002:00003ffc       ??_C@_03GGCAPAJC@Sep?$AA@  1001cffc     LIBCMT:nlsdata.obj
 0002:00004000       ??_C@_03BMAOKBAD@Oct?$AA@  1001d000     LIBCMT:nlsdata.obj
 0002:00004004       ??_C@_03JPJOFNIA@Nov?$AA@  1001d004     LIBCMT:nlsdata.obj
 0002:00004008       ??_C@_03MKABNOCG@Dec?$AA@  1001d008     LIBCMT:nlsdata.obj
 0002:0000400c       ??_C@_07CGJPFGJA@January?$AA@ 1001d00c     LIBCMT:nlsdata.obj
 0002:00004014       ??_C@_08GNJGEPFN@February?$AA@ 1001d014     LIBCMT:nlsdata.obj
 0002:00004020       ??_C@_05HPCKOFNC@March?$AA@ 1001d020     LIBCMT:nlsdata.obj
 0002:00004028       ??_C@_05DMJDNLEJ@April?$AA@ 1001d028     LIBCMT:nlsdata.obj
 0002:00004030       ??_C@_04CNLMGBGM@June?$AA@ 1001d030     LIBCMT:nlsdata.obj
 0002:00004038       ??_C@_04MIEPOIFP@July?$AA@ 1001d038     LIBCMT:nlsdata.obj
 0002:00004040       ??_C@_06LBBHFDDG@August?$AA@ 1001d040     LIBCMT:nlsdata.obj
 0002:00004048       ??_C@_09BHHEALKD@September?$AA@ 1001d048     LIBCMT:nlsdata.obj
 0002:00004054       ??_C@_07JJNFCEND@October?$AA@ 1001d054     LIBCMT:nlsdata.obj
 0002:0000405c       ??_C@_08HCHEGEOA@November?$AA@ 1001d05c     LIBCMT:nlsdata.obj
 0002:00004068       ??_C@_08EDHMEBNP@December?$AA@ 1001d068     LIBCMT:nlsdata.obj
 0002:00004074       ??_C@_02DEDBPAFC@AM?$AA@   1001d074     LIBCMT:nlsdata.obj
 0002:00004078       ??_C@_02CJNFDJBF@PM?$AA@   1001d078     LIBCMT:nlsdata.obj
 0002:0000407c       ??_C@_08BPBNCDIB@MM?1dd?1yy?$AA@ 1001d07c     LIBCMT:nlsdata.obj
 0002:00004088       ??_C@_0BE@CKGJFCPC@dddd?0?5MMMM?5dd?0?5yyyy?$AA@ 1001d088     LIBCMT:nlsdata.obj
 0002:0000409c       ??_C@_08JCCMCCIL@HH?3mm?3ss?$AA@ 1001d09c     LIBCMT:nlsdata.obj
 0002:000040a8       ??_C@_17MBGCMIPB@?$AAS?$AAu?$AAn?$AA?$AA@ 1001d0a8     LIBCMT:nlsdata.obj
 0002:000040b0       ??_C@_17KBOMKBF@?$AAM?$AAo?$AAn?$AA?$AA@ 1001d0b0     LIBCMT:nlsdata.obj
 0002:000040b8       ??_C@_17BMKGEGOJ@?$AAT?$AAu?$AAe?$AA?$AA@ 1001d0b8     LIBCMT:nlsdata.obj
 0002:000040c0       ??_C@_17CJEDCEPE@?$AAW?$AAe?$AAd?$AA?$AA@ 1001d0c0     LIBCMT:nlsdata.obj
 0002:000040c8       ??_C@_17PDPHAADD@?$AAT?$AAh?$AAu?$AA?$AA@ 1001d0c8     LIBCMT:nlsdata.obj
 0002:000040d0       ??_C@_17HFOLPPLP@?$AAF?$AAr?$AAi?$AA?$AA@ 1001d0d0     LIBCMT:nlsdata.obj
 0002:000040d8       ??_C@_17GGIBDPIH@?$AAS?$AAa?$AAt?$AA?$AA@ 1001d0d8     LIBCMT:nlsdata.obj
 0002:000040e0       ??_C@_1O@IHNHDHPB@?$AAS?$AAu?$AAn?$AAd?$AAa?$AAy?$AA?$AA@ 1001d0e0     LIBCMT:nlsdata.obj
 0002:000040f0       ??_C@_1O@MMNBFLIA@?$AAM?$AAo?$AAn?$AAd?$AAa?$AAy?$AA?$AA@ 1001d0f0     LIBCMT:nlsdata.obj
 0002:00004100       ??_C@_1BA@ENFBFFEK@?$AAT?$AAu?$AAe?$AAs?$AAd?$AAa?$AAy?$AA?$AA@ 1001d100     LIBCMT:nlsdata.obj
 0002:00004110       ??_C@_1BE@EBOGMDOH@?$AAW?$AAe?$AAd?$AAn?$AAe?$AAs?$AAd?$AAa?$AAy?$AA?$AA@ 1001d110     LIBCMT:nlsdata.obj
 0002:00004124       ??_C@_1BC@HHMNLIHE@?$AAT?$AAh?$AAu?$AAr?$AAs?$AAd?$AAa?$AAy?$AA?$AA@ 1001d124     LIBCMT:nlsdata.obj
 0002:00004138       ??_C@_1O@PDICJHAG@?$AAF?$AAr?$AAi?$AAd?$AAa?$AAy?$AA?$AA@ 1001d138     LIBCMT:nlsdata.obj
 0002:00004148       ??_C@_1BC@ENMNNPAJ@?$AAS?$AAa?$AAt?$AAu?$AAr?$AAd?$AAa?$AAy?$AA?$AA@ 1001d148     LIBCMT:nlsdata.obj
 0002:0000415c       ??_C@_17DKNBKCHM@?$AAJ?$AAa?$AAn?$AA?$AA@ 1001d15c     LIBCMT:nlsdata.obj
 0002:00004164       ??_C@_17LMDJEKJN@?$AAF?$AAe?$AAb?$AA?$AA@ 1001d164     LIBCMT:nlsdata.obj
 0002:0000416c       ??_C@_17CKNLEDEC@?$AAM?$AAa?$AAr?$AA?$AA@ 1001d16c     LIBCMT:nlsdata.obj
 0002:00004174       ??_C@_17LFPOIHDD@?$AAA?$AAp?$AAr?$AA?$AA@ 1001d174     LIBCMT:nlsdata.obj
 0002:0000417c       ??_C@_17PNNKMEED@?$AAM?$AAa?$AAy?$AA?$AA@ 1001d17c     LIBCMT:nlsdata.obj
 0002:00004184       ??_C@_17KCJGOCPB@?$AAJ?$AAu?$AAn?$AA?$AA@ 1001d184     LIBCMT:nlsdata.obj
 0002:0000418c       ??_C@_17IJPCKHK@?$AAJ?$AAu?$AAl?$AA?$AA@ 1001d18c     LIBCMT:nlsdata.obj
 0002:00004194       ??_C@_17ICPELBCN@?$AAA?$AAu?$AAg?$AA?$AA@ 1001d194     LIBCMT:nlsdata.obj
 0002:0000419c       ??_C@_17HCHCOKMG@?$AAS?$AAe?$AAp?$AA?$AA@ 1001d19c     LIBCMT:nlsdata.obj
 0002:000041a4       ??_C@_17FNLKOI@?$AAO?$AAc?$AAt?$AA?$AA@ 1001d1a4     LIBCMT:nlsdata.obj
 0002:000041ac       ??_C@_17BBDMLCIG@?$AAN?$AAo?$AAv?$AA?$AA@ 1001d1ac     LIBCMT:nlsdata.obj
 0002:000041b4       ??_C@_17EGKACKIF@?$AAD?$AAe?$AAc?$AA?$AA@ 1001d1b4     LIBCMT:nlsdata.obj
 0002:000041bc       ??_C@_1BA@EFMEIEBA@?$AAJ?$AAa?$AAn?$AAu?$AAa?$AAr?$AAy?$AA?$AA@ 1001d1bc     LIBCMT:nlsdata.obj
 0002:000041cc       ??_C@_1BC@JGDDFFAM@?$AAF?$AAe?$AAb?$AAr?$AAu?$AAa?$AAr?$AAy?$AA?$AA@ 1001d1cc     LIBCMT:nlsdata.obj
 0002:000041e0       ??_C@_1M@IKEENEDF@?$AAM?$AAa?$AAr?$AAc?$AAh?$AA?$AA@ 1001d1e0     LIBCMT:nlsdata.obj
 0002:000041ec       ??_C@_1M@GJNLMHFD@?$AAA?$AAp?$AAr?$AAi?$AAl?$AA?$AA@ 1001d1ec     LIBCMT:nlsdata.obj
 0002:000041f8       ??_C@_19EPFLPGAP@?$AAJ?$AAu?$AAn?$AAe?$AA?$AA@ 1001d1f8     LIBCMT:nlsdata.obj
 0002:00004204       ??_C@_19BIFMLPCD@?$AAJ?$AAu?$AAl?$AAy?$AA?$AA@ 1001d204     LIBCMT:nlsdata.obj
 0002:00004210       ??_C@_1O@PAHLKOAC@?$AAA?$AAu?$AAg?$AAu?$AAs?$AAt?$AA?$AA@ 1001d210     LIBCMT:nlsdata.obj
 0002:00004220       ??_C@_1BE@DKAAMBJL@?$AAS?$AAe?$AAp?$AAt?$AAe?$AAm?$AAb?$AAe?$AAr?$AA?$AA@ 1001d220     LIBCMT:nlsdata.obj
 0002:00004234       ??_C@_1BA@EPANDLNG@?$AAO?$AAc?$AAt?$AAo?$AAb?$AAe?$AAr?$AA?$AA@ 1001d234     LIBCMT:nlsdata.obj
 0002:00004244       ??_C@_1BC@BGLIFPF@?$AAN?$AAo?$AAv?$AAe?$AAm?$AAb?$AAe?$AAr?$AA?$AA@ 1001d244     LIBCMT:nlsdata.obj
 0002:00004258       ??_C@_1BC@FEMKIFH@?$AAD?$AAe?$AAc?$AAe?$AAm?$AAb?$AAe?$AAr?$AA?$AA@ 1001d258     LIBCMT:nlsdata.obj
 0002:0000426c       ??_C@_15ODEHAHHF@?$AAA?$AAM?$AA?$AA@ 1001d26c     LIBCMT:nlsdata.obj
 0002:00004274       ??_C@_15CLMNNGEL@?$AAP?$AAM?$AA?$AA@ 1001d274     LIBCMT:nlsdata.obj
 0002:0000427c       ??_C@_1BC@IEBCMHCM@?$AAM?$AAM?$AA?1?$AAd?$AAd?$AA?1?$AAy?$AAy?$AA?$AA@ 1001d27c     LIBCMT:nlsdata.obj
 0002:00004290       ??_C@_1CI@KNAKOEBC@?$AAd?$AAd?$AAd?$AAd?$AA?0?$AA?5?$AAM?$AAM?$AAM?$AAM?$AA?5?$AAd?$AAd?$AA?0?$AA?5?$AAy?$AAy?$AAy?$AAy?$AA?$AA@ 1001d290     LIBCMT:nlsdata.obj
 0002:000042b8       ??_C@_1BC@GDGBMEMK@?$AAH?$AAH?$AA?3?$AAm?$AAm?$AA?3?$AAs?$AAs?$AA?$AA@ 1001d2b8     LIBCMT:nlsdata.obj
 0002:000042d0       ___lc_category             1001d2d0     LIBCMT:wsetloca.obj
 0002:00004318       ??_C@_1O@GIFLHMA@?$AAL?$AAC?$AA_?$AAA?$AAL?$AAL?$AA?$AA@ 1001d318     LIBCMT:wsetloca.obj
 0002:00004328       ??_C@_1BG@PPOMIBNJ@?$AAL?$AAC?$AA_?$AAC?$AAO?$AAL?$AAL?$AAA?$AAT?$AAE?$AA?$AA@ 1001d328     LIBCMT:wsetloca.obj
 0002:00004340       ??_C@_1BC@FFJGAPJM@?$AAL?$AAC?$AA_?$AAC?$AAT?$AAY?$AAP?$AAE?$AA?$AA@ 1001d340     LIBCMT:wsetloca.obj
 0002:00004354       ??_C@_1BI@PCKFNJFB@?$AAL?$AAC?$AA_?$AAM?$AAO?$AAN?$AAE?$AAT?$AAA?$AAR?$AAY?$AA?$AA@ 1001d354     LIBCMT:wsetloca.obj
 0002:0000436c       ??_C@_1BG@ENIEDKID@?$AAL?$AAC?$AA_?$AAN?$AAU?$AAM?$AAE?$AAR?$AAI?$AAC?$AA?$AA@ 1001d36c     LIBCMT:wsetloca.obj
 0002:00004384       ??_C@_1BA@HAAOMIIG@?$AAL?$AAC?$AA_?$AAT?$AAI?$AAM?$AAE?$AA?$AA@ 1001d384     LIBCMT:wsetloca.obj
 0002:00004418       ??_C@_15NBPDDFIP@?$AA?$DN?$AA?$DL?$AA?$AA@ 1001d418     LIBCMT:wsetloca.obj
 0002:00004420       ??_C@_13PJJBFPED@?$AA?$DL?$AA?$AA@ 1001d420     LIBCMT:wsetloca.obj
 0002:00004424       ??_C@_13NMPKAAJP@?$AA?$DN?$AA?$AA@ 1001d424     LIBCMT:wsetloca.obj
 0002:00004428       ??_C@_13FHBKNHDA@?$AAC?$AA?$AA@ 1001d428     LIBCMT:wsetloca.obj
 0002:0000442c       ??_C@_17MBJJLFDM@?$AA_?$AA?4?$AA?0?$AA?$AA@ 1001d42c     LIBCMT:wsetloca.obj
 0002:00004434       ??_C@_13ENNFDPBH@?$AA_?$AA?$AA@ 1001d434     LIBCMT:wsetloca.obj
 0002:00004438       ??_C@_13JOFGPIOO@?$AA?4?$AA?$AA@ 1001d438     LIBCMT:wsetloca.obj
 0002:00004440       __XcptActTab               1001d440     LIBCMT:winxfltr.obj
 0002:000044d0       __XcptActTabCount          1001d4d0     LIBCMT:winxfltr.obj
 0002:000044d4       __XcptActTabSize           1001d4d4     LIBCMT:winxfltr.obj
 0002:000044d8       __First_FPE_Indx           1001d4d8     LIBCMT:winxfltr.obj
 0002:000044dc       __Num_FPE                  1001d4dc     LIBCMT:winxfltr.obj
 0002:000044e0       __pDestructExceptionObject 1001d4e0     LIBCMT:frame.obj
 0002:000044e8       ??_7bad_exception@std@@6B@ 1001d4e8     LIBCMT:frame.obj
 0002:000044f0       ??_C@_0O@DPKOEFFH@bad?5exception?$AA@ 1001d4f0     LIBCMT:frame.obj
 0002:00004500       ??_C@_05KLBDPFGC@e?$CL000?$AA@ 1001d500     LIBCMT:cvt.obj
 0002:000045c0       ??_C@_1FK@PGACCAFB@?$AAR?$AA6?$AA0?$AA0?$AA2?$AA?$AN?$AA?6?$AA?9?$AA?5?$AAf?$AAl?$AAo?$AAa?$AAt?$AAi?$AAn?$AAg?$AA?5?$AAp?$AAo?$AAi?$AAn?$AAt?$AA?5?$AAs?$AAu?$AAp?$AAp?$AAo?$AAr?$AAt?$AA?5@ 1001d5c0     LIBCMT:crt0msg.obj
 0002:00004620       ??_C@_1FE@LLNEDJMD@?$AAR?$AA6?$AA0?$AA0?$AA8?$AA?$AN?$AA?6?$AA?9?$AA?5?$AAn?$AAo?$AAt?$AA?5?$AAe?$AAn?$AAo?$AAu?$AAg?$AAh?$AA?5?$AAs?$AAp?$AAa?$AAc?$AAe?$AA?5?$AAf?$AAo?$AAr?$AA?5?$AAa?$AAr@ 1001d620     LIBCMT:crt0msg.obj
 0002:00004678       ??_C@_1FI@HONFMGBI@?$AAR?$AA6?$AA0?$AA0?$AA9?$AA?$AN?$AA?6?$AA?9?$AA?5?$AAn?$AAo?$AAt?$AA?5?$AAe?$AAn?$AAo?$AAu?$AAg?$AAh?$AA?5?$AAs?$AAp?$AAa?$AAc?$AAe?$AA?5?$AAf?$AAo?$AAr?$AA?5?$AAe?$AAn@ 1001d678     LIBCMT:crt0msg.obj
 0002:000046d0       ??_C@_1EG@BEHAGFJD@?$AAR?$AA6?$AA0?$AA1?$AA0?$AA?$AN?$AA?6?$AA?9?$AA?5?$AAa?$AAb?$AAo?$AAr?$AAt?$AA?$CI?$AA?$CJ?$AA?5?$AAh?$AAa?$AAs?$AA?5?$AAb?$AAe?$AAe?$AAn?$AA?5?$AAc?$AAa?$AAl?$AAl?$AAe?$AAd@ 1001d6d0     LIBCMT:crt0msg.obj
 0002:00004718       ??_C@_1FI@LOGNIKDM@?$AAR?$AA6?$AA0?$AA1?$AA6?$AA?$AN?$AA?6?$AA?9?$AA?5?$AAn?$AAo?$AAt?$AA?5?$AAe?$AAn?$AAo?$AAu?$AAg?$AAh?$AA?5?$AAs?$AAp?$AAa?$AAc?$AAe?$AA?5?$AAf?$AAo?$AAr?$AA?5?$AAt?$AAh@ 1001d718     LIBCMT:crt0msg.obj
 0002:00004770       ??_C@_1FK@BEOGODMC@?$AAR?$AA6?$AA0?$AA1?$AA7?$AA?$AN?$AA?6?$AA?9?$AA?5?$AAu?$AAn?$AAe?$AAx?$AAp?$AAe?$AAc?$AAt?$AAe?$AAd?$AA?5?$AAm?$AAu?$AAl?$AAt?$AAi?$AAt?$AAh?$AAr?$AAe?$AAa?$AAd?$AA?5@ 1001d770     LIBCMT:crt0msg.obj
 0002:000047d0       ??_C@_1EC@JIBHAOPH@?$AAR?$AA6?$AA0?$AA1?$AA8?$AA?$AN?$AA?6?$AA?9?$AA?5?$AAu?$AAn?$AAe?$AAx?$AAp?$AAe?$AAc?$AAt?$AAe?$AAd?$AA?5?$AAh?$AAe?$AAa?$AAp?$AA?5?$AAe?$AAr?$AAr?$AAo?$AAr?$AA?$AN?$AA?6@ 1001d7d0     LIBCMT:crt0msg.obj
 0002:00004818       ??_C@_1FC@ECHBIFBC@?$AAR?$AA6?$AA0?$AA1?$AA9?$AA?$AN?$AA?6?$AA?9?$AA?5?$AAu?$AAn?$AAa?$AAb?$AAl?$AAe?$AA?5?$AAt?$AAo?$AA?5?$AAo?$AAp?$AAe?$AAn?$AA?5?$AAc?$AAo?$AAn?$AAs?$AAo?$AAl?$AAe?$AA?5@ 1001d818     LIBCMT:crt0msg.obj
 0002:00004870       ??_C@_1GK@FHCKBEFA@?$AAR?$AA6?$AA0?$AA2?$AA4?$AA?$AN?$AA?6?$AA?9?$AA?5?$AAn?$AAo?$AAt?$AA?5?$AAe?$AAn?$AAo?$AAu?$AAg?$AAh?$AA?5?$AAs?$AAp?$AAa?$AAc?$AAe?$AA?5?$AAf?$AAo?$AAr?$AA?5?$AA_?$AAo@ 1001d870     LIBCMT:crt0msg.obj
 0002:000048e0       ??_C@_1EM@MAADIHMB@?$AAR?$AA6?$AA0?$AA2?$AA5?$AA?$AN?$AA?6?$AA?9?$AA?5?$AAp?$AAu?$AAr?$AAe?$AA?5?$AAv?$AAi?$AAr?$AAt?$AAu?$AAa?$AAl?$AA?5?$AAf?$AAu?$AAn?$AAc?$AAt?$AAi?$AAo?$AAn?$AA?5?$AAc@ 1001d8e0     LIBCMT:crt0msg.obj
 0002:00004930       ??_C@_1GK@MCAAGJMO@?$AAR?$AA6?$AA0?$AA2?$AA6?$AA?$AN?$AA?6?$AA?9?$AA?5?$AAn?$AAo?$AAt?$AA?5?$AAe?$AAn?$AAo?$AAu?$AAg?$AAh?$AA?5?$AAs?$AAp?$AAa?$AAc?$AAe?$AA?5?$AAf?$AAo?$AAr?$AA?5?$AAs?$AAt@ 1001d930     LIBCMT:crt0msg.obj
 0002:000049a0       ??_C@_1GK@MFGOKLAG@?$AAR?$AA6?$AA0?$AA2?$AA7?$AA?$AN?$AA?6?$AA?9?$AA?5?$AAn?$AAo?$AAt?$AA?5?$AAe?$AAn?$AAo?$AAu?$AAg?$AAh?$AA?5?$AAs?$AAp?$AAa?$AAc?$AAe?$AA?5?$AAf?$AAo?$AAr?$AA?5?$AAl?$AAo@ 1001d9a0     LIBCMT:crt0msg.obj
 0002:00004a10       ??_C@_1EK@HHFLMAOL@?$AAR?$AA6?$AA0?$AA2?$AA8?$AA?$AN?$AA?6?$AA?9?$AA?5?$AAu?$AAn?$AAa?$AAb?$AAl?$AAe?$AA?5?$AAt?$AAo?$AA?5?$AAi?$AAn?$AAi?$AAt?$AAi?$AAa?$AAl?$AAi?$AAz?$AAe?$AA?5?$AAh?$AAe@ 1001da10     LIBCMT:crt0msg.obj
 0002:00004a5c       ??_C@_1DO@BMFCDCD@?$AAR?$AA6?$AA0?$AA3?$AA0?$AA?$AN?$AA?6?$AA?9?$AA?5?$AAC?$AAR?$AAT?$AA?5?$AAn?$AAo?$AAt?$AA?5?$AAi?$AAn?$AAi?$AAt?$AAi?$AAa?$AAl?$AAi?$AAz?$AAe?$AAd?$AA?$AN?$AA?6?$AA?$AA@ 1001da5c     LIBCMT:crt0msg.obj
 0002:00004aa0       ??_C@_1MG@ENCOOIDF@?$AAR?$AA6?$AA0?$AA3?$AA1?$AA?$AN?$AA?6?$AA?9?$AA?5?$AAA?$AAt?$AAt?$AAe?$AAm?$AAp?$AAt?$AA?5?$AAt?$AAo?$AA?5?$AAi?$AAn?$AAi?$AAt?$AAi?$AAa?$AAl?$AAi?$AAz?$AAe?$AA?5?$AAt@ 1001daa0     LIBCMT:crt0msg.obj
 0002:00004b68       ??_C@_1GG@GOPILAJP@?$AAR?$AA6?$AA0?$AA3?$AA2?$AA?$AN?$AA?6?$AA?9?$AA?5?$AAn?$AAo?$AAt?$AA?5?$AAe?$AAn?$AAo?$AAu?$AAg?$AAh?$AA?5?$AAs?$AAp?$AAa?$AAc?$AAe?$AA?5?$AAf?$AAo?$AAr?$AA?5?$AAl?$AAo@ 1001db68     LIBCMT:crt0msg.obj
 0002:00004bd0       ??_C@_1BOO@KGEDBGAJ@?$AAR?$AA6?$AA0?$AA3?$AA3?$AA?$AN?$AA?6?$AA?9?$AA?5?$AAA?$AAt?$AAt?$AAe?$AAm?$AAp?$AAt?$AA?5?$AAt?$AAo?$AA?5?$AAu?$AAs?$AAe?$AA?5?$AAM?$AAS?$AAI?$AAL?$AA?5?$AAc?$AAo?$AAd@ 1001dbd0     LIBCMT:crt0msg.obj
 0002:00004dc0       ??_C@_1GG@MKFPEKFO@?$AAR?$AA6?$AA0?$AA3?$AA4?$AA?$AN?$AA?6?$AA?9?$AA?5?$AAi?$AAn?$AAc?$AAo?$AAn?$AAs?$AAi?$AAs?$AAt?$AAe?$AAn?$AAt?$AA?5?$AAo?$AAn?$AAe?$AAx?$AAi?$AAt?$AA?5?$AAb?$AAe?$AAg@ 1001ddc0     LIBCMT:crt0msg.obj
 0002:00004e28       ??_C@_1BO@BFCDCGC@?$AAD?$AAO?$AAM?$AAA?$AAI?$AAN?$AA?5?$AAe?$AAr?$AAr?$AAo?$AAr?$AA?$AN?$AA?6?$AA?$AA@ 1001de28     LIBCMT:crt0msg.obj
 0002:00004e48       ??_C@_1BK@KMOMNAAI@?$AAS?$AAI?$AAN?$AAG?$AA?5?$AAe?$AAr?$AAr?$AAo?$AAr?$AA?$AN?$AA?6?$AA?$AA@ 1001de48     LIBCMT:crt0msg.obj
 0002:00004e64       ??_C@_1BM@JBBEPPHI@?$AAT?$AAL?$AAO?$AAS?$AAS?$AA?5?$AAe?$AAr?$AAr?$AAo?$AAr?$AA?$AN?$AA?6?$AA?$AA@ 1001de64     LIBCMT:crt0msg.obj
 0002:00004e80       ??_C@_15JNBOKNOG@?$AA?$AN?$AA?6?$AA?$AA@ 1001de80     LIBCMT:crt0msg.obj
 0002:00004e88       ??_C@_1BO@BKOMIGKJ@?$AAr?$AAu?$AAn?$AAt?$AAi?$AAm?$AAe?$AA?5?$AAe?$AAr?$AAr?$AAo?$AAr?$AA?5?$AA?$AA@ 1001de88     LIBCMT:crt0msg.obj
 0002:00004ea8       ??_C@_1DE@JNGNBFGO@?$AAR?$AAu?$AAn?$AAt?$AAi?$AAm?$AAe?$AA?5?$AAE?$AAr?$AAr?$AAo?$AAr?$AA?$CB?$AA?6?$AA?6?$AAP?$AAr?$AAo?$AAg?$AAr?$AAa?$AAm?$AA?3?$AA?5?$AA?$AA@ 1001dea8     LIBCMT:crt0msg.obj
 0002:00004edc       ??_C@_1CO@EAEJAADC@?$AA?$DM?$AAp?$AAr?$AAo?$AAg?$AAr?$AAa?$AAm?$AA?5?$AAn?$AAa?$AAm?$AAe?$AA?5?$AAu?$AAn?$AAk?$AAn?$AAo?$AAw?$AAn?$AA?$DO?$AA?$AA@ 1001dedc     LIBCMT:crt0msg.obj
 0002:00004f0c       ??_C@_17LGKOMLJ@?$AA?4?$AA?4?$AA?4?$AA?$AA@ 1001df0c     LIBCMT:crt0msg.obj
 0002:00004f14       ??_C@_15IABLJNFO@?$AA?6?$AA?6?$AA?$AA@ 1001df14     LIBCMT:crt0msg.obj
 0002:00004f20       ??_C@_1EK@MBDPDCGA@?$AAM?$AAi?$AAc?$AAr?$AAo?$AAs?$AAo?$AAf?$AAt?$AA?5?$AAV?$AAi?$AAs?$AAu?$AAa?$AAl?$AA?5?$AAC?$AA?$CL?$AA?$CL?$AA?5?$AAR?$AAu?$AAn?$AAt?$AAi?$AAm?$AAe?$AA?5?$AAL?$AAi?$AAb@ 1001df20     LIBCMT:crt0msg.obj
 0002:00004f6c       ??_C@_06OJHGLDPL@?$CInull?$CJ?$AA@ 1001df6c     LIBCMT:output.obj
 0002:00004f74       ??_C@_1O@CEDCILHN@?$AA?$CI?$AAn?$AAu?$AAl?$AAl?$AA?$CJ?$AA?$AA@ 1001df74     LIBCMT:output.obj
 0002:00004f88       ___lookuptable             1001df88     LIBCMT:output.obj
 0002:00004fe4       ___dnames                  1001dfe4     LIBCMT:timeset.obj
 0002:00004ffc       ___mnames                  1001dffc     LIBCMT:timeset.obj
 0002:00005030       __indefinite               1001e030     LIBCMT:87disp.obj
 0002:0000503a       __piby2                    1001e03a     LIBCMT:87disp.obj
 0002:00005068       __DEFAULT_CW_in_mem        1001e068     LIBCMT:common.obj
 0002:0000506a       __pi_by_2_to_61            1001e06a     LIBCMT:common.obj
 0002:000050a8       ___rg_language             1001e0a8     LIBCMT:getqloc.obj
 0002:000053b4       ??_C@_1BC@LLOKLNP@?$AAa?$AAm?$AAe?$AAr?$AAi?$AAc?$AAa?$AAn?$AA?$AA@ 1001e3b4     LIBCMT:getqloc.obj
 0002:000053c8       ??_C@_1CC@HEIGCDGG@?$AAa?$AAm?$AAe?$AAr?$AAi?$AAc?$AAa?$AAn?$AA?5?$AAe?$AAn?$AAg?$AAl?$AAi?$AAs?$AAh?$AA?$AA@ 1001e3c8     LIBCMT:getqloc.obj
 0002:000053ec       ??_C@_1CC@IHCNOMIN@?$AAa?$AAm?$AAe?$AAr?$AAi?$AAc?$AAa?$AAn?$AA?9?$AAe?$AAn?$AAg?$AAl?$AAi?$AAs?$AAh?$AA?$AA@ 1001e3ec     LIBCMT:getqloc.obj
 0002:00005410       ??_C@_1BG@GKAGPCGG@?$AAa?$AAu?$AAs?$AAt?$AAr?$AAa?$AAl?$AAi?$AAa?$AAn?$AA?$AA@ 1001e410     LIBCMT:getqloc.obj
 0002:00005428       ??_C@_1BA@GMENCENF@?$AAb?$AAe?$AAl?$AAg?$AAi?$AAa?$AAn?$AA?$AA@ 1001e428     LIBCMT:getqloc.obj
 0002:00005438       ??_C@_1BC@PJMIIAAN@?$AAc?$AAa?$AAn?$AAa?$AAd?$AAi?$AAa?$AAn?$AA?$AA@ 1001e438     LIBCMT:getqloc.obj
 0002:0000544c       ??_C@_17NOIMNFBF@?$AAc?$AAh?$AAh?$AA?$AA@ 1001e44c     LIBCMT:getqloc.obj
 0002:00005454       ??_C@_17GGDALCHA@?$AAc?$AAh?$AAi?$AA?$AA@ 1001e454     LIBCMT:getqloc.obj
 0002:0000545c       ??_C@_1BA@NPNJKIBL@?$AAc?$AAh?$AAi?$AAn?$AAe?$AAs?$AAe?$AA?$AA@ 1001e45c     LIBCMT:getqloc.obj
 0002:0000546c       ??_C@_1CC@DINBAMMJ@?$AAc?$AAh?$AAi?$AAn?$AAe?$AAs?$AAe?$AA?9?$AAh?$AAo?$AAn?$AAg?$AAk?$AAo?$AAn?$AAg?$AA?$AA@ 1001e46c     LIBCMT:getqloc.obj
 0002:00005490       ??_C@_1CG@IOBJPACO@?$AAc?$AAh?$AAi?$AAn?$AAe?$AAs?$AAe?$AA?9?$AAs?$AAi?$AAm?$AAp?$AAl?$AAi?$AAf?$AAi?$AAe?$AAd?$AA?$AA@ 1001e490     LIBCMT:getqloc.obj
 0002:000054b8       ??_C@_1CE@GAJNDCKG@?$AAc?$AAh?$AAi?$AAn?$AAe?$AAs?$AAe?$AA?9?$AAs?$AAi?$AAn?$AAg?$AAa?$AAp?$AAo?$AAr?$AAe?$AA?$AA@ 1001e4b8     LIBCMT:getqloc.obj
 0002:000054dc       ??_C@_1CI@PAJPIOOD@?$AAc?$AAh?$AAi?$AAn?$AAe?$AAs?$AAe?$AA?9?$AAt?$AAr?$AAa?$AAd?$AAi?$AAt?$AAi?$AAo?$AAn?$AAa?$AAl?$AA?$AA@ 1001e4dc     LIBCMT:getqloc.obj
 0002:00005504       ??_C@_1BM@NILJBMMD@?$AAd?$AAu?$AAt?$AAc?$AAh?$AA?9?$AAb?$AAe?$AAl?$AAg?$AAi?$AAa?$AAn?$AA?$AA@ 1001e504     LIBCMT:getqloc.obj
 0002:00005520       ??_C@_1CC@OOJPJNEJ@?$AAe?$AAn?$AAg?$AAl?$AAi?$AAs?$AAh?$AA?9?$AAa?$AAm?$AAe?$AAr?$AAi?$AAc?$AAa?$AAn?$AA?$AA@ 1001e520     LIBCMT:getqloc.obj
 0002:00005544       ??_C@_1BI@IOLFEEM@?$AAe?$AAn?$AAg?$AAl?$AAi?$AAs?$AAh?$AA?9?$AAa?$AAu?$AAs?$AA?$AA@ 1001e544     LIBCMT:getqloc.obj
 0002:0000555c       ??_C@_1BO@HFFNLENJ@?$AAe?$AAn?$AAg?$AAl?$AAi?$AAs?$AAh?$AA?9?$AAb?$AAe?$AAl?$AAi?$AAz?$AAe?$AA?$AA@ 1001e55c     LIBCMT:getqloc.obj
 0002:0000557c       ??_C@_1BI@HAPKJMPO@?$AAe?$AAn?$AAg?$AAl?$AAi?$AAs?$AAh?$AA?9?$AAc?$AAa?$AAn?$AA?$AA@ 1001e57c     LIBCMT:getqloc.obj
 0002:00005594       ??_C@_1CE@HLNDMIOJ@?$AAe?$AAn?$AAg?$AAl?$AAi?$AAs?$AAh?$AA?9?$AAc?$AAa?$AAr?$AAi?$AAb?$AAb?$AAe?$AAa?$AAn?$AA?$AA@ 1001e594     LIBCMT:getqloc.obj
 0002:000055b8       ??_C@_1BI@LDHJHHAC@?$AAe?$AAn?$AAg?$AAl?$AAi?$AAs?$AAh?$AA?9?$AAi?$AAr?$AAe?$AA?$AA@ 1001e5b8     LIBCMT:getqloc.obj
 0002:000055d0       ??_C@_1CA@NJMMCFOC@?$AAe?$AAn?$AAg?$AAl?$AAi?$AAs?$AAh?$AA?9?$AAj?$AAa?$AAm?$AAa?$AAi?$AAc?$AAa?$AA?$AA@ 1001e5d0     LIBCMT:getqloc.obj
 0002:000055f0       ??_C@_1BG@BHJEBBGG@?$AAe?$AAn?$AAg?$AAl?$AAi?$AAs?$AAh?$AA?9?$AAn?$AAz?$AA?$AA@ 1001e5f0     LIBCMT:getqloc.obj
 0002:00005608       ??_C@_1CK@FGOEJJCO@?$AAe?$AAn?$AAg?$AAl?$AAi?$AAs?$AAh?$AA?9?$AAs?$AAo?$AAu?$AAt?$AAh?$AA?5?$AAa?$AAf?$AAr?$AAi?$AAc?$AAa?$AA?$AA@ 1001e608     LIBCMT:getqloc.obj
 0002:00005634       ??_C@_1DE@PDBJPCJ@?$AAe?$AAn?$AAg?$AAl?$AAi?$AAs?$AAh?$AA?9?$AAt?$AAr?$AAi?$AAn?$AAi?$AAd?$AAa?$AAd?$AA?5?$AAy?$AA?5?$AAt?$AAo?$AAb?$AAa?$AAg?$AAo?$AA?$AA@ 1001e634     LIBCMT:getqloc.obj
 0002:00005668       ??_C@_1BG@JGCANDME@?$AAe?$AAn?$AAg?$AAl?$AAi?$AAs?$AAh?$AA?9?$AAu?$AAk?$AA?$AA@ 1001e668     LIBCMT:getqloc.obj
 0002:00005680       ??_C@_1BG@DINKMLE@?$AAe?$AAn?$AAg?$AAl?$AAi?$AAs?$AAh?$AA?9?$AAu?$AAs?$AA?$AA@ 1001e680     LIBCMT:getqloc.obj
 0002:00005698       ??_C@_1BI@NMFDBHJE@?$AAe?$AAn?$AAg?$AAl?$AAi?$AAs?$AAh?$AA?9?$AAu?$AAs?$AAa?$AA?$AA@ 1001e698     LIBCMT:getqloc.obj
 0002:000056b0       ??_C@_1BO@OIHKJKII@?$AAf?$AAr?$AAe?$AAn?$AAc?$AAh?$AA?9?$AAb?$AAe?$AAl?$AAg?$AAi?$AAa?$AAn?$AA?$AA@ 1001e6b0     LIBCMT:getqloc.obj
 0002:000056d0       ??_C@_1CA@NKAELJKI@?$AAf?$AAr?$AAe?$AAn?$AAc?$AAh?$AA?9?$AAc?$AAa?$AAn?$AAa?$AAd?$AAi?$AAa?$AAn?$AA?$AA@ 1001e6d0     LIBCMT:getqloc.obj
 0002:000056f0       ??_C@_1CE@MGKCNLGN@?$AAf?$AAr?$AAe?$AAn?$AAc?$AAh?$AA?9?$AAl?$AAu?$AAx?$AAe?$AAm?$AAb?$AAo?$AAu?$AAr?$AAg?$AA?$AA@ 1001e6f0     LIBCMT:getqloc.obj
 0002:00005714       ??_C@_1BK@CEGEAILM@?$AAf?$AAr?$AAe?$AAn?$AAc?$AAh?$AA?9?$AAs?$AAw?$AAi?$AAs?$AAs?$AA?$AA@ 1001e714     LIBCMT:getqloc.obj
 0002:00005730       ??_C@_1CA@PAFKEOCC@?$AAg?$AAe?$AAr?$AAm?$AAa?$AAn?$AA?9?$AAa?$AAu?$AAs?$AAt?$AAr?$AAi?$AAa?$AAn?$AA?$AA@ 1001e730     LIBCMT:getqloc.obj
 0002:00005750       ??_C@_1CI@HCFHGOFD@?$AAg?$AAe?$AAr?$AAm?$AAa?$AAn?$AA?9?$AAl?$AAi?$AAc?$AAh?$AAt?$AAe?$AAn?$AAs?$AAt?$AAe?$AAi?$AAn?$AA?$AA@ 1001e750     LIBCMT:getqloc.obj
 0002:00005778       ??_C@_1CE@FEDDNPDG@?$AAg?$AAe?$AAr?$AAm?$AAa?$AAn?$AA?9?$AAl?$AAu?$AAx?$AAe?$AAm?$AAb?$AAo?$AAu?$AAr?$AAg?$AA?$AA@ 1001e778     LIBCMT:getqloc.obj
 0002:0000579c       ??_C@_1BK@LIMINNMN@?$AAg?$AAe?$AAr?$AAm?$AAa?$AAn?$AA?9?$AAs?$AAw?$AAi?$AAs?$AAs?$AA?$AA@ 1001e79c     LIBCMT:getqloc.obj
 0002:000057b8       ??_C@_1BM@LGMDBEPD@?$AAi?$AAr?$AAi?$AAs?$AAh?$AA?9?$AAe?$AAn?$AAg?$AAl?$AAi?$AAs?$AAh?$AA?$AA@ 1001e7b8     LIBCMT:getqloc.obj
 0002:000057d4       ??_C@_1BM@NNCFBAEE@?$AAi?$AAt?$AAa?$AAl?$AAi?$AAa?$AAn?$AA?9?$AAs?$AAw?$AAi?$AAs?$AAs?$AA?$AA@ 1001e7d4     LIBCMT:getqloc.obj
 0002:000057f0       ??_C@_1BE@FEDJNPIB@?$AAn?$AAo?$AAr?$AAw?$AAe?$AAg?$AAi?$AAa?$AAn?$AA?$AA@ 1001e7f0     LIBCMT:getqloc.obj
 0002:00005804       ??_C@_1CC@CILKDEIE@?$AAn?$AAo?$AAr?$AAw?$AAe?$AAg?$AAi?$AAa?$AAn?$AA?9?$AAb?$AAo?$AAk?$AAm?$AAa?$AAl?$AA?$AA@ 1001e804     LIBCMT:getqloc.obj
 0002:00005828       ??_C@_1CE@DHMMHEPL@?$AAn?$AAo?$AAr?$AAw?$AAe?$AAg?$AAi?$AAa?$AAn?$AA?9?$AAn?$AAy?$AAn?$AAo?$AAr?$AAs?$AAk?$AA?$AA@ 1001e828     LIBCMT:getqloc.obj
 0002:0000584c       ??_C@_1CK@OPNMHECD@?$AAp?$AAo?$AAr?$AAt?$AAu?$AAg?$AAu?$AAe?$AAs?$AAe?$AA?9?$AAb?$AAr?$AAa?$AAz?$AAi?$AAl?$AAi?$AAa?$AAn?$AA?$AA@ 1001e84c     LIBCMT:getqloc.obj
 0002:00005878       ??_C@_1CE@KEEHCDB@?$AAs?$AAp?$AAa?$AAn?$AAi?$AAs?$AAh?$AA?9?$AAa?$AAr?$AAg?$AAe?$AAn?$AAt?$AAi?$AAn?$AAa?$AA?$AA@ 1001e878     LIBCMT:getqloc.obj
 0002:0000589c       ??_C@_1CA@GIAOLHJD@?$AAs?$AAp?$AAa?$AAn?$AAi?$AAs?$AAh?$AA?9?$AAb?$AAo?$AAl?$AAi?$AAv?$AAi?$AAa?$AA?$AA@ 1001e89c     LIBCMT:getqloc.obj
 0002:000058bc       ??_C@_1BM@OJNDFNPD@?$AAs?$AAp?$AAa?$AAn?$AAi?$AAs?$AAh?$AA?9?$AAc?$AAh?$AAi?$AAl?$AAe?$AA?$AA@ 1001e8bc     LIBCMT:getqloc.obj
 0002:000058d8       ??_C@_1CC@OCOLPALL@?$AAs?$AAp?$AAa?$AAn?$AAi?$AAs?$AAh?$AA?9?$AAc?$AAo?$AAl?$AAo?$AAm?$AAb?$AAi?$AAa?$AA?$AA@ 1001e8d8     LIBCMT:getqloc.obj
 0002:000058fc       ??_C@_1CG@BPOFMKBB@?$AAs?$AAp?$AAa?$AAn?$AAi?$AAs?$AAh?$AA?9?$AAc?$AAo?$AAs?$AAt?$AAa?$AA?5?$AAr?$AAi?$AAc?$AAa?$AA?$AA@ 1001e8fc     LIBCMT:getqloc.obj
 0002:00005924       ??_C@_1DG@IGOBAPBB@?$AAs?$AAp?$AAa?$AAn?$AAi?$AAs?$AAh?$AA?9?$AAd?$AAo?$AAm?$AAi?$AAn?$AAi?$AAc?$AAa?$AAn?$AA?5?$AAr?$AAe?$AAp?$AAu?$AAb?$AAl?$AAi?$AAc?$AA?$AA@ 1001e924     LIBCMT:getqloc.obj
 0002:0000595c       ??_C@_1CA@JHAPGEGI@?$AAs?$AAp?$AAa?$AAn?$AAi?$AAs?$AAh?$AA?9?$AAe?$AAc?$AAu?$AAa?$AAd?$AAo?$AAr?$AA?$AA@ 1001e95c     LIBCMT:getqloc.obj
 0002:0000597c       ??_C@_1CI@LAPALJPP@?$AAs?$AAp?$AAa?$AAn?$AAi?$AAs?$AAh?$AA?9?$AAe?$AAl?$AA?5?$AAs?$AAa?$AAl?$AAv?$AAa?$AAd?$AAo?$AAr?$AA?$AA@ 1001e97c     LIBCMT:getqloc.obj
 0002:000059a4       ??_C@_1CE@PDGBOFOM@?$AAs?$AAp?$AAa?$AAn?$AAi?$AAs?$AAh?$AA?9?$AAg?$AAu?$AAa?$AAt?$AAe?$AAm?$AAa?$AAl?$AAa?$AA?$AA@ 1001e9a4     LIBCMT:getqloc.obj
 0002:000059c8       ??_C@_1CC@NBEBAODI@?$AAs?$AAp?$AAa?$AAn?$AAi?$AAs?$AAh?$AA?9?$AAh?$AAo?$AAn?$AAd?$AAu?$AAr?$AAa?$AAs?$AA?$AA@ 1001e9c8     LIBCMT:getqloc.obj
 0002:000059ec       ??_C@_1CA@LLKGHBMF@?$AAs?$AAp?$AAa?$AAn?$AAi?$AAs?$AAh?$AA?9?$AAm?$AAe?$AAx?$AAi?$AAc?$AAa?$AAn?$AA?$AA@ 1001e9ec     LIBCMT:getqloc.obj
 0002:00005a0c       ??_C@_1BO@LKNDOIGD@?$AAs?$AAp?$AAa?$AAn?$AAi?$AAs?$AAh?$AA?9?$AAm?$AAo?$AAd?$AAe?$AAr?$AAn?$AA?$AA@ 1001ea0c     LIBCMT:getqloc.obj
 0002:00005a2c       ??_C@_1CE@NMDMOEEB@?$AAs?$AAp?$AAa?$AAn?$AAi?$AAs?$AAh?$AA?9?$AAn?$AAi?$AAc?$AAa?$AAr?$AAa?$AAg?$AAu?$AAa?$AA?$AA@ 1001ea2c     LIBCMT:getqloc.obj
 0002:00005a50       ??_C@_1BO@LLCBEJGB@?$AAs?$AAp?$AAa?$AAn?$AAi?$AAs?$AAh?$AA?9?$AAp?$AAa?$AAn?$AAa?$AAm?$AAa?$AA?$AA@ 1001ea50     LIBCMT:getqloc.obj
 0002:00005a70       ??_C@_1CC@FKPGGIHO@?$AAs?$AAp?$AAa?$AAn?$AAi?$AAs?$AAh?$AA?9?$AAp?$AAa?$AAr?$AAa?$AAg?$AAu?$AAa?$AAy?$AA?$AA@ 1001ea70     LIBCMT:getqloc.obj
 0002:00005a94       ??_C@_1BK@CDEIHOOP@?$AAs?$AAp?$AAa?$AAn?$AAi?$AAs?$AAh?$AA?9?$AAp?$AAe?$AAr?$AAu?$AA?$AA@ 1001ea94     LIBCMT:getqloc.obj
 0002:00005ab0       ??_C@_1CI@GAHAKKGP@?$AAs?$AAp?$AAa?$AAn?$AAi?$AAs?$AAh?$AA?9?$AAp?$AAu?$AAe?$AAr?$AAt?$AAo?$AA?5?$AAr?$AAi?$AAc?$AAo?$AA?$AA@ 1001eab0     LIBCMT:getqloc.obj
 0002:00005ad8       ??_C@_1CA@NKJBCAGP@?$AAs?$AAp?$AAa?$AAn?$AAi?$AAs?$AAh?$AA?9?$AAu?$AAr?$AAu?$AAg?$AAu?$AAa?$AAy?$AA?$AA@ 1001ead8     LIBCMT:getqloc.obj
 0002:00005af8       ??_C@_1CE@ODILCONM@?$AAs?$AAp?$AAa?$AAn?$AAi?$AAs?$AAh?$AA?9?$AAv?$AAe?$AAn?$AAe?$AAz?$AAu?$AAe?$AAl?$AAa?$AA?$AA@ 1001eaf8     LIBCMT:getqloc.obj
 0002:00005b1c       ??_C@_1CA@OBNMCGFO@?$AAs?$AAw?$AAe?$AAd?$AAi?$AAs?$AAh?$AA?9?$AAf?$AAi?$AAn?$AAl?$AAa?$AAn?$AAd?$AA?$AA@ 1001eb1c     LIBCMT:getqloc.obj
 0002:00005b3c       ??_C@_1M@PIPDDPPI@?$AAs?$AAw?$AAi?$AAs?$AAs?$AA?$AA@ 1001eb3c     LIBCMT:getqloc.obj
 0002:00005b48       ??_C@_15GMFIMNFM@?$AAu?$AAs?$AA?$AA@ 1001eb48     LIBCMT:getqloc.obj
 0002:00005b50       ??_C@_17HAEBFAGL@?$AAu?$AAs?$AAa?$AA?$AA@ 1001eb50     LIBCMT:getqloc.obj
 0002:00005b58       ___rg_country              1001eb58     LIBCMT:getqloc.obj
 0002:00005c6c       ??_C@_1BA@DPFJEPHB@?$AAa?$AAm?$AAe?$AAr?$AAi?$AAc?$AAa?$AA?$AA@ 1001ec6c     LIBCMT:getqloc.obj
 0002:00005c7c       ??_C@_1BA@ELOGGFK@?$AAb?$AAr?$AAi?$AAt?$AAa?$AAi?$AAn?$AA?$AA@ 1001ec7c     LIBCMT:getqloc.obj
 0002:00005c8c       ??_C@_1M@GHBGIGDA@?$AAc?$AAh?$AAi?$AAn?$AAa?$AA?$AA@ 1001ec8c     LIBCMT:getqloc.obj
 0002:00005c98       ??_C@_1M@NCHEJOPO@?$AAc?$AAz?$AAe?$AAc?$AAh?$AA?$AA@ 1001ec98     LIBCMT:getqloc.obj
 0002:00005ca4       ??_C@_1BA@BKPAPBLA@?$AAe?$AAn?$AAg?$AAl?$AAa?$AAn?$AAd?$AA?$AA@ 1001eca4     LIBCMT:getqloc.obj
 0002:00005cb4       ??_C@_1BM@HKBCKIPC@?$AAg?$AAr?$AAe?$AAa?$AAt?$AA?5?$AAb?$AAr?$AAi?$AAt?$AAa?$AAi?$AAn?$AA?$AA@ 1001ecb4     LIBCMT:getqloc.obj
 0002:00005cd0       ??_C@_1BA@PPCHPGJB@?$AAh?$AAo?$AAl?$AAl?$AAa?$AAn?$AAd?$AA?$AA@ 1001ecd0     LIBCMT:getqloc.obj
 0002:00005ce0       ??_C@_1BE@JBMPEGDG@?$AAh?$AAo?$AAn?$AAg?$AA?9?$AAk?$AAo?$AAn?$AAg?$AA?$AA@ 1001ece0     LIBCMT:getqloc.obj
 0002:00005cf4       ??_C@_1BI@KOELBBPJ@?$AAn?$AAe?$AAw?$AA?9?$AAz?$AAe?$AAa?$AAl?$AAa?$AAn?$AAd?$AA?$AA@ 1001ecf4     LIBCMT:getqloc.obj
 0002:00005d0c       ??_C@_15HIEBHAIO@?$AAn?$AAz?$AA?$AA@ 1001ed0c     LIBCMT:getqloc.obj
 0002:00005d14       ??_C@_1BC@CHBCPFPI@?$AAp?$AAr?$AA?5?$AAc?$AAh?$AAi?$AAn?$AAa?$AA?$AA@ 1001ed14     LIBCMT:getqloc.obj
 0002:00005d28       ??_C@_1BC@JAOIIFKD@?$AAp?$AAr?$AA?9?$AAc?$AAh?$AAi?$AAn?$AAa?$AA?$AA@ 1001ed28     LIBCMT:getqloc.obj
 0002:00005d3c       ??_C@_1BI@BEHPPHKC@?$AAp?$AAu?$AAe?$AAr?$AAt?$AAo?$AA?9?$AAr?$AAi?$AAc?$AAo?$AA?$AA@ 1001ed3c     LIBCMT:getqloc.obj
 0002:00005d54       ??_C@_1O@PAEOFKDI@?$AAs?$AAl?$AAo?$AAv?$AAa?$AAk?$AA?$AA@ 1001ed54     LIBCMT:getqloc.obj
 0002:00005d64       ??_C@_1BK@FIHMCKAM@?$AAs?$AAo?$AAu?$AAt?$AAh?$AA?5?$AAa?$AAf?$AAr?$AAi?$AAc?$AAa?$AA?$AA@ 1001ed64     LIBCMT:getqloc.obj
 0002:00005d80       ??_C@_1BI@NAEOODKB@?$AAs?$AAo?$AAu?$AAt?$AAh?$AA?5?$AAk?$AAo?$AAr?$AAe?$AAa?$AA?$AA@ 1001ed80     LIBCMT:getqloc.obj
 0002:00005d98       ??_C@_1BK@FBDGGIFF@?$AAs?$AAo?$AAu?$AAt?$AAh?$AA?9?$AAa?$AAf?$AAr?$AAi?$AAc?$AAa?$AA?$AA@ 1001ed98     LIBCMT:getqloc.obj
 0002:00005db4       ??_C@_1BI@GHLEJDPK@?$AAs?$AAo?$AAu?$AAt?$AAh?$AA?9?$AAk?$AAo?$AAr?$AAe?$AAa?$AA?$AA@ 1001edb4     LIBCMT:getqloc.obj
 0002:00005dcc       ??_C@_1CE@PLHLOMJF@?$AAt?$AAr?$AAi?$AAn?$AAi?$AAd?$AAa?$AAd?$AA?5?$AA?$CG?$AA?5?$AAt?$AAo?$AAb?$AAa?$AAg?$AAo?$AA?$AA@ 1001edcc     LIBCMT:getqloc.obj
 0002:00005df0       ??_C@_1BO@MODIMHHI@?$AAu?$AAn?$AAi?$AAt?$AAe?$AAd?$AA?9?$AAk?$AAi?$AAn?$AAg?$AAd?$AAo?$AAm?$AA?$AA@ 1001edf0     LIBCMT:getqloc.obj
 0002:00005e10       ??_C@_1BM@FFHJONBJ@?$AAu?$AAn?$AAi?$AAt?$AAe?$AAd?$AA?9?$AAs?$AAt?$AAa?$AAt?$AAe?$AAs?$AA?$AA@ 1001ee10     LIBCMT:getqloc.obj
 0002:00005e2c       ___rg_language_count       1001ee2c     LIBCMT:getqloc.obj
 0002:00005e30       ___rg_country_count        1001ee30     LIBCMT:getqloc.obj
 0002:00005e34       ??_C@_17DNCLJFIF@?$AAA?$AAC?$AAP?$AA?$AA@ 1001ee34     LIBCMT:getqloc.obj
 0002:00005e3c       ??_C@_17CIKBIHLH@?$AAO?$AAC?$AAP?$AA?$AA@ 1001ee3c     LIBCMT:getqloc.obj
 0002:00005e44       ___rglangidNotDefault      1001ee44     LIBCMT:getqloc_downlevel.obj
 0002:00005fe4       ??_C@_08EHJDFFNH@__based?$CI?$AA@ 1001efe4     LIBCMT:undname.obj
 0002:00005ff0       ??_C@_07KOLFKCDI@__cdecl?$AA@ 1001eff0     LIBCMT:undname.obj
 0002:00005ff8       ??_C@_08GHMPAG@__pascal?$AA@ 1001eff8     LIBCMT:undname.obj
 0002:00006004       ??_C@_09IFJBGAPI@__stdcall?$AA@ 1001f004     LIBCMT:undname.obj
 0002:00006010       ??_C@_0L@NPHFGOKO@__thiscall?$AA@ 1001f010     LIBCMT:undname.obj
 0002:0000601c       ??_C@_0L@JMKHOMEK@__fastcall?$AA@ 1001f01c     LIBCMT:undname.obj
 0002:00006028       ??_C@_0N@BCKKPABJ@__vectorcall?$AA@ 1001f028     LIBCMT:undname.obj
 0002:00006038       ??_C@_09HIJEGCPM@__clrcall?$AA@ 1001f038     LIBCMT:undname.obj
 0002:00006044       ??_C@_06GHPCKEAG@__eabi?$AA@ 1001f044     LIBCMT:undname.obj
 0002:0000604c       ??_C@_07JOMMBBKO@__ptr64?$AA@ 1001f04c     LIBCMT:undname.obj
 0002:00006054       ??_C@_0L@PILCLIHE@__restrict?$AA@ 1001f054     LIBCMT:undname.obj
 0002:00006060       ??_C@_0M@GFIIJFMG@__unaligned?$AA@ 1001f060     LIBCMT:undname.obj
 0002:0000606c       ??_C@_09DHDLOLLB@restrict?$CI?$AA@ 1001f06c     LIBCMT:undname.obj
 0002:00006078       ??_C@_04NIHEBCM@?5new?$AA@ 1001f078     LIBCMT:undname.obj
 0002:00006080       ??_C@_07FPCDHGMM@?5delete?$AA@ 1001f080     LIBCMT:undname.obj
 0002:00006088       ??_C@_01NEMOKFLO@?$DN?$AA@ 1001f088     LIBCMT:undname.obj
 0002:0000608c       ??_C@_02GPIOPFAK@?$DO?$DO?$AA@ 1001f08c     LIBCMT:undname.obj
 0002:00006090       ??_C@_02FODMEDOG@?$DM?$DM?$AA@ 1001f090     LIBCMT:undname.obj
 0002:00006094       ??_C@_01DCLJPIOD@?$CB?$AA@ 1001f094     LIBCMT:undname.obj
 0002:00006098       ??_C@_02EGOFBIJA@?$DN?$DN?$AA@ 1001f098     LIBCMT:undname.obj
 0002:0000609c       ??_C@_02FDNJECIE@?$CB?$DN?$AA@ 1001f09c     LIBCMT:undname.obj
 0002:000060a0       ??_C@_02GPECMEKF@?$FL?$FN?$AA@ 1001f0a0     LIBCMT:undname.obj
 0002:000060a4       ??_C@_08LHJFAFGD@operator?$AA@ 1001f0a4     LIBCMT:undname.obj
 0002:000060b0       ??_C@_02HBOOOICD@?9?$DO?$AA@ 1001f0b0     LIBCMT:undname.obj
 0002:000060b4       ??_C@_02ECNGHCIF@?$CL?$CL?$AA@ 1001f0b4     LIBCMT:undname.obj
 0002:000060b8       ??_C@_02BAABKJLB@?9?9?$AA@ 1001f0b8     LIBCMT:undname.obj
 0002:000060bc       ??_C@_01MIFGBAGJ@?$CL?$AA@ 1001f0bc     LIBCMT:undname.obj
 0002:000060c0       ??_C@_01HNPIGOCE@?$CG?$AA@ 1001f0c0     LIBCMT:undname.obj
 0002:000060c4       ??_C@_03MNHNFDLC@?9?$DO?$CK?$AA@ 1001f0c4     LIBCMT:undname.obj
 0002:000060c8       ??_C@_01KMDKNFGN@?1?$AA@   1001f0c8     LIBCMT:undname.obj
 0002:000060cc       ??_C@_01FGNFDNOH@?$CF?$AA@ 1001f0cc     LIBCMT:undname.obj
 0002:000060d0       ??_C@_01MNNFJEPP@?$DM?$AA@ 1001f0d0     LIBCMT:undname.obj
 0002:000060d4       ??_C@_02EHCHHCKH@?$DM?$DN?$AA@ 1001f0d4     LIBCMT:undname.obj
 0002:000060d8       ??_C@_01PPODPGHN@?$DO?$AA@ 1001f0d8     LIBCMT:undname.obj
 0002:000060dc       ??_C@_02EEKDKGMJ@?$DO?$DN?$AA@ 1001f0dc     LIBCMT:undname.obj
 0002:000060e0       ??_C@_01IHBHIGKO@?0?$AA@   1001f0e0     LIBCMT:undname.obj
 0002:000060e4       ??_C@_02HCKGKOFO@?$CI?$CJ?$AA@ 1001f0e4     LIBCMT:undname.obj
 0002:000060e8       ??_C@_01PJKLJHI@?$HO?$AA@  1001f0e8     LIBCMT:undname.obj
 0002:000060ec       ??_C@_01JKBOJNNK@?$FO?$AA@ 1001f0ec     LIBCMT:undname.obj
 0002:000060f0       ??_C@_01DNKMNLPK@?$HM?$AA@ 1001f0f0     LIBCMT:undname.obj
 0002:000060f4       ??_C@_02PPKAJPJL@?$CG?$CG?$AA@ 1001f0f4     LIBCMT:undname.obj
 0002:000060f8       ??_C@_02NONPIBCD@?$HM?$HM?$AA@ 1001f0f8     LIBCMT:undname.obj
 0002:000060fc       ??_C@_02FPIMKNGF@?$CK?$DN?$AA@ 1001f0fc     LIBCMT:undname.obj
 0002:00006100       ??_C@_02FOEOMHFC@?$CL?$DN?$AA@ 1001f100     LIBCMT:undname.obj
 0002:00006104       ??_C@_02FKMDLLOA@?9?$DN?$AA@ 1001f104     LIBCMT:undname.obj
 0002:00006108       ??_C@_02FJEHGPIO@?1?$DN?$AA@ 1001f108     LIBCMT:undname.obj
 0002:0000610c       ??_C@_02FENAOKFI@?$CF?$DN?$AA@ 1001f10c     LIBCMT:undname.obj
 0002:00006110       ??_C@_03IKFCCPFF@?$DO?$DO?$DN?$AA@ 1001f110     LIBCMT:undname.obj
 0002:00006114       ??_C@_03CDNPDDLA@?$DM?$DM?$DN?$AA@ 1001f114     LIBCMT:undname.obj
 0002:00006118       ??_C@_02FGJGFEAB@?$CG?$DN?$AA@ 1001f118     LIBCMT:undname.obj
 0002:0000611c       ??_C@_02DHLNPPGH@?$HM?$DN?$AA@ 1001f11c     LIBCMT:undname.obj
 0002:00006120       ??_C@_02MHEGNOJ@?$FO?$DN?$AA@ 1001f120     LIBCMT:undname.obj
 0002:00006124       ??_C@_09IFPLHPGF@?$GAvftable?8?$AA@ 1001f124     LIBCMT:undname.obj
 0002:00006130       ??_C@_09BLBHBJP@?$GAvbtable?8?$AA@ 1001f130     LIBCMT:undname.obj
 0002:0000613c       ??_C@_07FEEIOKP@?$GAvcall?8?$AA@ 1001f13c     LIBCMT:undname.obj
 0002:00006144       ??_C@_08LLFFHHDJ@?$GAtypeof?8?$AA@ 1001f144     LIBCMT:undname.obj
 0002:00006150       ??_C@_0BF@KDPPACIK@?$GAlocal?5static?5guard?8?$AA@ 1001f150     LIBCMT:undname.obj
 0002:00006168       ??_C@_08OBABFOLI@?$GAstring?8?$AA@ 1001f168     LIBCMT:undname.obj
 0002:00006174       ??_C@_0BD@JDLKDPAB@?$GAvbase?5destructor?8?$AA@ 1001f174     LIBCMT:undname.obj
 0002:00006188       ??_C@_0BN@DEGPLNFK@?$GAvector?5deleting?5destructor?8?$AA@ 1001f188     LIBCMT:undname.obj
 0002:000061a8       ??_C@_0BO@OBMKPJIG@?$GAdefault?5constructor?5closure?8?$AA@ 1001f1a8     LIBCMT:undname.obj
 0002:000061c8       ??_C@_0BN@IMDCHIKM@?$GAscalar?5deleting?5destructor?8?$AA@ 1001f1c8     LIBCMT:undname.obj
 0002:000061e8       ??_C@_0BO@PFGOCPJJ@?$GAvector?5constructor?5iterator?8?$AA@ 1001f1e8     LIBCMT:undname.obj
 0002:00006208       ??_C@_0BN@LFPFMEDL@?$GAvector?5destructor?5iterator?8?$AA@ 1001f208     LIBCMT:undname.obj
 0002:00006228       ??_C@_0CE@IKBNEHA@?$GAvector?5vbase?5constructor?5iterat@ 1001f228     LIBCMT:undname.obj
 0002:0000624c       ??_C@_0BL@NILFHHPC@?$GAvirtual?5displacement?5map?8?$AA@ 1001f24c     LIBCMT:undname.obj
 0002:00006268       ??_C@_0CB@JONCMFFK@?$GAeh?5vector?5constructor?5iterator?8@ 1001f268     LIBCMT:undname.obj
 0002:0000628c       ??_C@_0CA@GCEOPDGL@?$GAeh?5vector?5destructor?5iterator?8?$AA@ 1001f28c     LIBCMT:undname.obj
 0002:000062ac       ??_C@_0CH@OOJPLCPH@?$GAeh?5vector?5vbase?5constructor?5ite@ 1001f2ac     LIBCMT:undname.obj
 0002:000062d4       ??_C@_0BL@LLKPOHJI@?$GAcopy?5constructor?5closure?8?$AA@ 1001f2d4     LIBCMT:undname.obj
 0002:000062f0       ??_C@_0BA@KBCDOMBN@?$GAudt?5returning?8?$AA@ 1001f2f0     LIBCMT:undname.obj
 0002:00006300       ??_C@_03KLGMFNMG@?$GAEH?$AA@ 1001f300     LIBCMT:undname.obj
 0002:00006304       ??_C@_05KHLCHHI@?$GARTTI?$AA@ 1001f304     LIBCMT:undname.obj
 0002:0000630c       ??_C@_0BA@KKLDJDLB@?$GAlocal?5vftable?8?$AA@ 1001f30c     LIBCMT:undname.obj
 0002:0000631c       ??_C@_0CE@IIHCMGGL@?$GAlocal?5vftable?5constructor?5closu@ 1001f31c     LIBCMT:undname.obj
 0002:00006340       ??_C@_06FHBGPFGH@?5new?$FL?$FN?$AA@ 1001f340     LIBCMT:undname.obj
 0002:00006348       ??_C@_09LBNFPBCA@?5delete?$FL?$FN?$AA@ 1001f348     LIBCMT:undname.obj
 0002:00006354       ??_C@_0P@HJKNJFNN@?$GAomni?5callsig?8?$AA@ 1001f354     LIBCMT:undname.obj
 0002:00006364       ??_C@_0BL@CNOONJFP@?$GAplacement?5delete?5closure?8?$AA@ 1001f364     LIBCMT:undname.obj
 0002:00006380       ??_C@_0BN@CKNJLHMB@?$GAplacement?5delete?$FL?$FN?5closure?8?$AA@ 1001f380     LIBCMT:undname.obj
 0002:000063a0       ??_C@_0CG@CFDHKGGD@?$GAmanaged?5vector?5constructor?5iter@ 1001f3a0     LIBCMT:undname.obj
 0002:000063c8       ??_C@_0CF@IMGKMJNO@?$GAmanaged?5vector?5destructor?5itera@ 1001f3c8     LIBCMT:undname.obj
 0002:000063f0       ??_C@_0CG@HLDDJMAG@?$GAeh?5vector?5copy?5constructor?5iter@ 1001f3f0     LIBCMT:undname.obj
 0002:00006418       ??_C@_0CM@FCBBDIGB@?$GAeh?5vector?5vbase?5copy?5constructo@ 1001f418     LIBCMT:undname.obj
 0002:00006444       ??_C@_0BL@CLIPGLGB@?$GAdynamic?5initializer?5for?5?8?$AA@ 1001f444     LIBCMT:undname.obj
 0002:00006460       ??_C@_0CB@PDBIFEP@?$GAdynamic?5atexit?5destructor?5for?5?8@ 1001f460     LIBCMT:undname.obj
 0002:00006484       ??_C@_0CD@CGAJBKEJ@?$GAvector?5copy?5constructor?5iterato@ 1001f484     LIBCMT:undname.obj
 0002:000064a8       ??_C@_0CJ@GJELGAMM@?$GAvector?5vbase?5copy?5constructor?5i@ 1001f4a8     LIBCMT:undname.obj
 0002:000064d4       ??_C@_0CL@FGIJHLCE@?$GAmanaged?5vector?5copy?5constructor@ 1001f4d4     LIBCMT:undname.obj
 0002:00006500       ??_C@_0BM@PMGGMLDN@?$GAlocal?5static?5thread?5guard?8?$AA@ 1001f500     LIBCMT:undname.obj
 0002:0000651c       ??_C@_0BC@DAFEJGAK@?5Type?5Descriptor?8?$AA@ 1001f51c     LIBCMT:undname.obj
 0002:00006530       ??_C@_0BM@LDKODKLH@?5Base?5Class?5Descriptor?5at?5?$CI?$AA@ 1001f530     LIBCMT:undname.obj
 0002:0000654c       ??_C@_0BD@LGICGFMM@?5Base?5Class?5Array?8?$AA@ 1001f54c     LIBCMT:undname.obj
 0002:00006560       ??_C@_0BN@MECKDCOJ@?5Class?5Hierarchy?5Descriptor?8?$AA@ 1001f560     LIBCMT:undname.obj
 0002:00006580       ??_C@_0BK@CFCOFLF@?5Complete?5Object?5Locator?8?$AA@ 1001f580     LIBCMT:undname.obj
 0002:0000659c       ??_C@_1BG@GOEBHBDC@?$AAU?$AAS?$AAE?$AAR?$AA3?$AA2?$AA?4?$AAD?$AAL?$AAL?$AA?$AA@ 1001f59c     LIBCMT:crtmboxw.obj
 0002:000065b4       ??_C@_0M@DLDCCGNP@MessageBoxW?$AA@ 1001f5b4     LIBCMT:crtmboxw.obj
 0002:000065c0       ??_C@_0BA@HNOPNCHB@GetActiveWindow?$AA@ 1001f5c0     LIBCMT:crtmboxw.obj
 0002:000065d0       ??_C@_0BD@HHGDFDBJ@GetLastActivePopup?$AA@ 1001f5d0     LIBCMT:crtmboxw.obj
 0002:000065e4       ??_C@_0BK@DEKFELLI@GetUserObjectInformationW?$AA@ 1001f5e4     LIBCMT:crtmboxw.obj
 0002:00006600       ??_C@_0BI@DFKBFLJE@GetProcessWindowStation?$AA@ 1001f600     LIBCMT:crtmboxw.obj
 0002:00006618       ___lookuptable_s           1001f618     LIBCMT:outputs.obj
 0002:00006674       ??_C@_06PGGFOGJG@1?$CDSNAN?$AA@ 1001f674     LIBCMT:x10fout.obj
 0002:0000667c       ??_C@_05PHHOCPM@1?$CDIND?$AA@ 1001f67c     LIBCMT:x10fout.obj
 0002:00006684       ??_C@_05DNEBIAHO@1?$CDINF?$AA@ 1001f684     LIBCMT:x10fout.obj
 0002:0000668c       ??_C@_06IMKFLFPG@1?$CDQNAN?$AA@ 1001f68c     LIBCMT:x10fout.obj
 0002:00006694       ??_C@_1BA@BALFACEM@?$AAC?$AAO?$AAN?$AAO?$AAU?$AAT?$AA$?$AA?$AA@ 1001f694     LIBCMT:initcon.obj
 0002:000066a4       ??_C@_0BA@JFNIOLAK@string?5too?5long?$AA@ 1001f6a4     main.obj
 0002:000066b4       ??_C@_03MGHMBJCF@log?$AA@  1001f6b4     main.obj
 0002:000066b8       ??_C@_0P@KIADDMJD@?4?4?2src?2main?4cc?$AA@ 1001f6b8     main.obj
 0002:000066c8       ??_C@_05NKHGJDKP@nslog?$AA@ 1001f6c8     main.obj
 0002:000066d0       ??_C@_0BI@CFPLBAOH@invalid?5string?5position?$AA@ 1001f6d0     main.obj
 0002:000066e8       ??_C@_0BC@BDKFLDHL@unknown?5exception?$AA@ 1001f6e8     nslog_win.obj
 0002:000066fc       ??_C@_0BA@ELKIONDK@bad?5locale?5name?$AA@ 1001f6fc     nslog_win.obj
 0002:0000670c       ??_C@_00CNPNBAHC@?$AA@     1001f70c     nslog_win.obj
 0002:00006710       ??_C@_02LMMGGCAJ@?3?5?$AA@ 1001f710     nslog_win.obj
 0002:00006714       ??_C@_0BF@PHHKMMFD@ios_base?3?3badbit?5set?$AA@ 1001f714     nslog_win.obj
 0002:0000672c       ??_C@_0BG@FMKFHCIL@ios_base?3?3failbit?5set?$AA@ 1001f72c     nslog_win.obj
 0002:00006744       ??_C@_0BF@OOHOMBOF@ios_base?3?3eofbit?5set?$AA@ 1001f744     nslog_win.obj
 0002:0000675c       ??_7exception@stdext@@6B@  1001f75c     nslog_win.obj
 0002:00006768       __load_config_used         1001f768     LIBCMT:loadcfg.obj
 0002:00006834       ??_R1A@?0A@EA@exception@std@@8 1001f834     libcpmt:xthrow.obj
 0002:00006850       ??_R3exception@std@@8      1001f850     libcpmt:xthrow.obj
 0002:00006860       ??_R2exception@std@@8      1001f860     libcpmt:xthrow.obj
 0002:00006868       ??_R4bad_alloc@std@@6B@    1001f868     libcpmt:xthrow.obj
 0002:0000687c       ??_R3bad_alloc@std@@8      1001f87c     libcpmt:xthrow.obj
 0002:0000688c       ??_R2bad_alloc@std@@8      1001f88c     libcpmt:xthrow.obj
 0002:00006898       ??_R1A@?0A@EA@bad_alloc@std@@8 1001f898     libcpmt:xthrow.obj
 0002:000068b4       ??_R4logic_error@std@@6B@  1001f8b4     libcpmt:xthrow.obj
 0002:000068c8       ??_R3logic_error@std@@8    1001f8c8     libcpmt:xthrow.obj
 0002:000068d8       ??_R2logic_error@std@@8    1001f8d8     libcpmt:xthrow.obj
 0002:000068e4       ??_R1A@?0A@EA@logic_error@std@@8 1001f8e4     libcpmt:xthrow.obj
 0002:00006900       ??_R4length_error@std@@6B@ 1001f900     libcpmt:xthrow.obj
 0002:00006914       ??_R3length_error@std@@8   1001f914     libcpmt:xthrow.obj
 0002:00006924       ??_R2length_error@std@@8   1001f924     libcpmt:xthrow.obj
 0002:00006934       ??_R1A@?0A@EA@length_error@std@@8 1001f934     libcpmt:xthrow.obj
 0002:00006950       ??_R4out_of_range@std@@6B@ 1001f950     libcpmt:xthrow.obj
 0002:00006964       ??_R3out_of_range@std@@8   1001f964     libcpmt:xthrow.obj
 0002:00006974       ??_R2out_of_range@std@@8   1001f974     libcpmt:xthrow.obj
 0002:00006984       ??_R1A@?0A@EA@out_of_range@std@@8 1001f984     libcpmt:xthrow.obj
 0002:000069a0       ??_R4runtime_error@std@@6B@ 1001f9a0     libcpmt:xthrow.obj
 0002:000069b4       ??_R3runtime_error@std@@8  1001f9b4     libcpmt:xthrow.obj
 0002:000069c4       ??_R2runtime_error@std@@8  1001f9c4     libcpmt:xthrow.obj
 0002:000069d0       ??_R1A@?0A@EA@runtime_error@std@@8 1001f9d0     libcpmt:xthrow.obj
 0002:000069ec       ??_R4_Facet_base@std@@6B@  1001f9ec     libcpmt:locale0.obj
 0002:00006a00       ??_R3_Facet_base@std@@8    1001fa00     libcpmt:locale0.obj
 0002:00006a10       ??_R2_Facet_base@std@@8    1001fa10     libcpmt:locale0.obj
 0002:00006a18       ??_R1A@?0A@EA@_Facet_base@std@@8 1001fa18     libcpmt:locale0.obj
 0002:00006a34       ??_R4_Locimp@locale@std@@6B@ 1001fa34     libcpmt:locale0.obj
 0002:00006a48       ??_R3_Locimp@locale@std@@8 1001fa48     libcpmt:locale0.obj
 0002:00006a58       ??_R2_Locimp@locale@std@@8 1001fa58     libcpmt:locale0.obj
 0002:00006a68       ??_R1A@?0A@EA@_Locimp@locale@std@@8 1001fa68     libcpmt:locale0.obj
 0002:00006a84       ??_R1A@?0A@EA@facet@locale@std@@8 1001fa84     libcpmt:locale0.obj
 0002:00006aa0       ??_R3facet@locale@std@@8   1001faa0     libcpmt:locale0.obj
 0002:00006ab0       ??_R2facet@locale@std@@8   1001fab0     libcpmt:locale0.obj
 0002:00006abc       ??_R4ios_base@std@@6B@     1001fabc     libcpmt:cout.obj
 0002:00006ad0       ??_R3ios_base@std@@8       1001fad0     libcpmt:cout.obj
 0002:00006ae0       ??_R2ios_base@std@@8       1001fae0     libcpmt:cout.obj
 0002:00006aec       ??_R1A@?0A@EA@ios_base@std@@8 1001faec     libcpmt:cout.obj
 0002:00006b08       ??_R17?0A@EA@?$_Iosb@H@std@@8 1001fb08     libcpmt:cout.obj
 0002:00006b24       ??_R3?$_Iosb@H@std@@8      1001fb24     libcpmt:cout.obj
 0002:00006b34       ??_R2?$_Iosb@H@std@@8      1001fb34     libcpmt:cout.obj
 0002:00006b3c       ??_R1A@?0A@EA@?$_Iosb@H@std@@8 1001fb3c     libcpmt:cout.obj
 0002:00006b58       ??_R4?$basic_ios@DU?$char_traits@D@std@@@std@@6B@ 1001fb58     libcpmt:cout.obj
 0002:00006b6c       ??_R3?$basic_ios@DU?$char_traits@D@std@@@std@@8 1001fb6c     libcpmt:cout.obj
 0002:00006b7c       ??_R2?$basic_ios@DU?$char_traits@D@std@@@std@@8 1001fb7c     libcpmt:cout.obj
 0002:00006b8c       ??_R1A@?0A@EA@?$basic_ios@DU?$char_traits@D@std@@@std@@8 1001fb8c     libcpmt:cout.obj
 0002:00006ba8       ??_R4?$basic_streambuf@DU?$char_traits@D@std@@@std@@6B@ 1001fba8     libcpmt:cout.obj
 0002:00006bbc       ??_R3?$basic_streambuf@DU?$char_traits@D@std@@@std@@8 1001fbbc     libcpmt:cout.obj
 0002:00006bcc       ??_R2?$basic_streambuf@DU?$char_traits@D@std@@@std@@8 1001fbcc     libcpmt:cout.obj
 0002:00006bd4       ??_R1A@?0A@EA@?$basic_streambuf@DU?$char_traits@D@std@@@std@@8 1001fbd4     libcpmt:cout.obj
 0002:00006bf0       ??_R1A@A@3FA@?$basic_ios@DU?$char_traits@D@std@@@std@@8 1001fbf0     libcpmt:cout.obj
 0002:00006c0c       ??_R1A@A@3EA@ios_base@std@@8 1001fc0c     libcpmt:cout.obj
 0002:00006c28       ??_R17A@3EA@?$_Iosb@H@std@@8 1001fc28     libcpmt:cout.obj
 0002:00006c44       ??_R4?$basic_ostream@DU?$char_traits@D@std@@@std@@6B@ 1001fc44     libcpmt:cout.obj
 0002:00006c58       ??_R3?$basic_ostream@DU?$char_traits@D@std@@@std@@8 1001fc58     libcpmt:cout.obj
 0002:00006c68       ??_R2?$basic_ostream@DU?$char_traits@D@std@@@std@@8 1001fc68     libcpmt:cout.obj
 0002:00006c7c       ??_R1A@?0A@EA@?$basic_ostream@DU?$char_traits@D@std@@@std@@8 1001fc7c     libcpmt:cout.obj
 0002:00006c98       ??_R4?$basic_filebuf@DU?$char_traits@D@std@@@std@@6B@ 1001fc98     libcpmt:cout.obj
 0002:00006cac       ??_R3?$basic_filebuf@DU?$char_traits@D@std@@@std@@8 1001fcac     libcpmt:cout.obj
 0002:00006cbc       ??_R2?$basic_filebuf@DU?$char_traits@D@std@@@std@@8 1001fcbc     libcpmt:cout.obj
 0002:00006cc8       ??_R1A@?0A@EA@?$basic_filebuf@DU?$char_traits@D@std@@@std@@8 1001fcc8     libcpmt:cout.obj
 0002:00006ce4       ??_R3codecvt_base@std@@8   1001fce4     libcpmt:cout.obj
 0002:00006cf4       ??_R2codecvt_base@std@@8   1001fcf4     libcpmt:cout.obj
 0002:00006d04       ??_R1A@?0A@EA@codecvt_base@std@@8 1001fd04     libcpmt:cout.obj
 0002:00006d20       ??_R3ctype_base@std@@8     1001fd20     libcpmt:cout.obj
 0002:00006d30       ??_R2ctype_base@std@@8     1001fd30     libcpmt:cout.obj
 0002:00006d40       ??_R1A@?0A@EA@ctype_base@std@@8 1001fd40     libcpmt:cout.obj
 0002:00006d5c       ??_R4?$ctype@D@std@@6B@    1001fd5c     libcpmt:cout.obj
 0002:00006d70       ??_R3?$ctype@D@std@@8      1001fd70     libcpmt:cout.obj
 0002:00006d80       ??_R2?$ctype@D@std@@8      1001fd80     libcpmt:cout.obj
 0002:00006d94       ??_R1A@?0A@EA@?$ctype@D@std@@8 1001fd94     libcpmt:cout.obj
 0002:00006db0       ??_R4_System_error@std@@6B@ 1001fdb0     libcpmt:cout.obj
 0002:00006dc4       ??_R3_System_error@std@@8  1001fdc4     libcpmt:cout.obj
 0002:00006dd4       ??_R2_System_error@std@@8  1001fdd4     libcpmt:cout.obj
 0002:00006de4       ??_R1A@?0A@EA@_System_error@std@@8 1001fde4     libcpmt:cout.obj
 0002:00006e00       ??_R3system_error@std@@8   1001fe00     libcpmt:cout.obj
 0002:00006e10       ??_R2system_error@std@@8   1001fe10     libcpmt:cout.obj
 0002:00006e24       ??_R1A@?0A@EA@system_error@std@@8 1001fe24     libcpmt:cout.obj
 0002:00006e40       ??_R4failure@ios_base@std@@6B@ 1001fe40     libcpmt:cout.obj
 0002:00006e54       ??_R3failure@ios_base@std@@8 1001fe54     libcpmt:cout.obj
 0002:00006e64       ??_R2failure@ios_base@std@@8 1001fe64     libcpmt:cout.obj
 0002:00006e7c       ??_R1A@?0A@EA@failure@ios_base@std@@8 1001fe7c     libcpmt:cout.obj
 0002:00006e98       ??_R4?$codecvt@DDH@std@@6B@ 1001fe98     libcpmt:cout.obj
 0002:00006eac       ??_R3?$codecvt@DDH@std@@8  1001feac     libcpmt:cout.obj
 0002:00006ebc       ??_R2?$codecvt@DDH@std@@8  1001febc     libcpmt:cout.obj
 0002:00006ed0       ??_R1A@?0A@EA@?$codecvt@DDH@std@@8 1001fed0     libcpmt:cout.obj
 0002:00006eec       ??_R4type_info@@6B@        1001feec     LIBCMT:typinfo.obj
 0002:00006f00       ??_R3type_info@@8          1001ff00     LIBCMT:typinfo.obj
 0002:00006f10       ??_R2type_info@@8          1001ff10     LIBCMT:typinfo.obj
 0002:00006f18       ??_R1A@?0A@EA@type_info@@8 1001ff18     LIBCMT:typinfo.obj
 0002:00006f34       ??_R4exception@std@@6B@    1001ff34     LIBCMT:stdexcpt.obj
 0002:00006f48       ??_R4bad_cast@std@@6B@     1001ff48     LIBCMT:stdexcpt.obj
 0002:00006f5c       ??_R3bad_cast@std@@8       1001ff5c     LIBCMT:stdexcpt.obj
 0002:00006f6c       ??_R2bad_cast@std@@8       1001ff6c     LIBCMT:stdexcpt.obj
 0002:00006f78       ??_R1A@?0A@EA@bad_cast@std@@8 1001ff78     LIBCMT:stdexcpt.obj
 0002:00006f94       ??_R4bad_exception@std@@6B@ 1001ff94     LIBCMT:frame.obj
 0002:00006fa8       ??_R3bad_exception@std@@8  1001ffa8     LIBCMT:frame.obj
 0002:00006fb8       ??_R2bad_exception@std@@8  1001ffb8     LIBCMT:frame.obj
 0002:00006fc4       ??_R1A@?0A@EA@bad_exception@std@@8 1001ffc4     LIBCMT:frame.obj
 0002:00006fe0       ___safe_se_handler_table   1001ffe0     <linker-defined>
 0002:00007014       ___rtc_iaa                 10020014     LIBCMT:initsect.obj
 0002:00007018       ___rtc_izz                 10020018     LIBCMT:initsect.obj
 0002:0000701c       ___rtc_taa                 1002001c     LIBCMT:initsect.obj
 0002:00007020       ___rtc_tzz                 10020020     LIBCMT:initsect.obj
 0002:00007028       __TI2?AVbad_alloc@std@@    10020028     libcpmt:xthrow.obj
 0002:00007038       __CTA2?AVbad_alloc@std@@   10020038     libcpmt:xthrow.obj
 0002:00007044       __CT??_R0?AVbad_alloc@std@@@8??0bad_alloc@std@@QAE@ABV01@@Z12 10020044     libcpmt:xthrow.obj
 0002:00007060       __CT??_R0?AVexception@std@@@8??0exception@std@@QAE@ABV01@@Z12 10020060     libcpmt:xthrow.obj
 0002:0000707c       __CT??_R0?AVlogic_error@std@@@8??0logic_error@std@@QAE@ABV01@@Z12 1002007c     libcpmt:xthrow.obj
 0002:00007098       __TI3?AVlength_error@std@@ 10020098     libcpmt:xthrow.obj
 0002:000070a8       __CTA3?AVlength_error@std@@ 100200a8     libcpmt:xthrow.obj
 0002:000070b8       __CT??_R0?AVlength_error@std@@@8??0length_error@std@@QAE@ABV01@@Z12 100200b8     libcpmt:xthrow.obj
 0002:000070d4       __TI3?AVout_of_range@std@@ 100200d4     libcpmt:xthrow.obj
 0002:000070e4       __CTA3?AVout_of_range@std@@ 100200e4     libcpmt:xthrow.obj
 0002:000070f4       __CT??_R0?AVout_of_range@std@@@8??0out_of_range@std@@QAE@ABV01@@Z12 100200f4     libcpmt:xthrow.obj
 0002:00007244       __TI2?AVbad_cast@std@@     10020244     libcpmt:cout.obj
 0002:00007254       __CTA2?AVbad_cast@std@@    10020254     libcpmt:cout.obj
 0002:00007260       __CT??_R0?AVbad_cast@std@@@8??0bad_cast@std@@QAE@ABV01@@Z12 10020260     libcpmt:cout.obj
 0002:00007714       __TI2?AVbad_exception@std@@ 10020714     LIBCMT:frame.obj
 0002:00007724       __CTA2?AVbad_exception@std@@ 10020724     LIBCMT:frame.obj
 0002:00007730       __CT??_R0?AVbad_exception@std@@@8??0bad_exception@std@@QAE@ABV01@@Z12 10020730     LIBCMT:frame.obj
 0002:000078e0       __IMPORT_DESCRIPTOR_KERNEL32 100208e0     kernel32:KERNEL32.dll
 0002:000078f4       __IMPORT_DESCRIPTOR_node   100208f4     node:node.dll
 0002:00007908       __NULL_IMPORT_DESCRIPTOR   10020908     kernel32:KERNEL32.dll
 0003:00000010       ?_PJP_CPP_Copyright@@3PADA 10022010     libcpmt:iosptrs.obj
 0003:0000006b       ?_Sync@ios_base@std@@0_NA  1002206b     libcpmt:ios.obj
 0003:00000070       __FDenorm                  10022070     libcpmt:xfvalues.obj
 0003:00000080       __FInf                     10022080     libcpmt:xfvalues.obj
 0003:00000090       __FNan                     10022090     libcpmt:xfvalues.obj
 0003:000000a0       __FSnan                    100220a0     libcpmt:xfvalues.obj
 0003:000000b0       __FEps                     100220b0     libcpmt:xfvalues.obj
 0003:000000c0       __FRteps                   100220c0     libcpmt:xfvalues.obj
 0003:000000d0       __FXbig                    100220d0     libcpmt:xfvalues.obj
 0003:000000d8       __Denorm                   100220d8     libcpmt:xvalues.obj
 0003:000000e8       __Hugeval                  100220e8     libcpmt:xvalues.obj
 0003:000000f8       __Inf                      100220f8     libcpmt:xvalues.obj
 0003:00000108       __Nan                      10022108     libcpmt:xvalues.obj
 0003:00000118       __Snan                     10022118     libcpmt:xvalues.obj
 0003:00000128       __Eps                      10022128     libcpmt:xvalues.obj
 0003:00000138       __Rteps                    10022138     libcpmt:xvalues.obj
 0003:00000148       __Xbig                     10022148     libcpmt:xvalues.obj
 0003:00000150       __LDenorm                  10022150     libcpmt:xlvalues.obj
 0003:00000160       __LInf                     10022160     libcpmt:xlvalues.obj
 0003:00000170       __LNan                     10022170     libcpmt:xlvalues.obj
 0003:00000180       __LSnan                    10022180     libcpmt:xlvalues.obj
 0003:00000190       __LEps                     10022190     libcpmt:xlvalues.obj
 0003:000001a0       __LRteps                   100221a0     libcpmt:xlvalues.obj
 0003:000001b0       __LXbig                    100221b0     libcpmt:xlvalues.obj
 0003:000001c0       ___abort_behavior          100221c0     LIBCMT:abort.obj
 0003:000001d0       __fltused                  100221d0     LIBCMT:fpinit.obj
 0003:000001d4       __ldused                   100221d4     LIBCMT:fpinit.obj
 0003:000001d8       __iob                      100221d8     LIBCMT:_file.obj
 0003:00000580       __pctype                   10022580     LIBCMT:ctype.obj
 0003:00000584       __pwctype                  10022584     LIBCMT:ctype.obj
 0003:00000590       ___lconv                   10022590     LIBCMT:lconv.obj
 0003:00000594       ___lconv_static_decimal    10022594     LIBCMT:lconv.obj
 0003:00000598       ___lconv_c                 10022598     LIBCMT:lconv.obj
 0003:000005e8       ___lconv_static_W_decimal  100225e8     LIBCMT:lconv.obj
 0003:000005ec       ___security_cookie         100225ec     LIBCMT:gs_cookie.obj
 0003:000005f0       ___security_cookie_complement 100225f0     LIBCMT:gs_cookie.obj
 0003:00000778       ___isa_enabled             10022778     LIBCMT:cpu_disp.obj
 0003:00000780       __d_inf                    10022780     LIBCMT:util.obj
 0003:00000788       __d_ind                    10022788     LIBCMT:util.obj
 0003:00000790       __d_max                    10022790     LIBCMT:util.obj
 0003:00000798       __d_min                    10022798     LIBCMT:util.obj
 0003:000007a0       __d_mzero                  100227a0     LIBCMT:util.obj
 0003:000008b0       __mbctype                  100228b0     LIBCMT:mbctype.obj
 0003:000009b8       __mbcasemap                100229b8     LIBCMT:mbctype.obj
 0003:00000ab8       ___initialmbcinfo          10022ab8     LIBCMT:mbctype.obj
 0003:00000cdc       ___ptmbcinfo               10022cdc     LIBCMT:mbctype.obj
 0003:00000dd0       ___flsindex                10022dd0     LIBCMT:tidtable.obj
 0003:00000dd4       ___mb_cur_max              10022dd4     LIBCMT:nlsdata.obj
 0003:00000dd8       ___wclocalestr             10022dd8     LIBCMT:nlsdata.obj
 0003:00000de0       ___lc_time_c               10022de0     LIBCMT:nlsdata.obj
 0003:00000f44       ___ptlocinfo               10022f44     LIBCMT:nlsdata.obj
 0003:00000f48       ___initiallocinfo          10022f48     LIBCMT:nlsdata.obj
 0003:00001000       ___globallocalestatus      10023000     LIBCMT:glstatus.obj
 0003:00001008       ___badioinfo               10023008     LIBCMT:ioinit.obj
 0003:00001050       __cfltcvt_tab              10023050     LIBCMT:cmiscdat.obj
 0003:00001080       ___nullstring              10023080     LIBCMT:output.obj
 0003:00001084       ___wnullstring             10023084     LIBCMT:output.obj
 0003:000010a0       __timezone                 100230a0     LIBCMT:timeset.obj
 0003:000010a4       __daylight                 100230a4     LIBCMT:timeset.obj
 0003:000010a8       __dstbias                  100230a8     LIBCMT:timeset.obj
 0003:00001130       __tzname                   10023130     LIBCMT:timeset.obj
 0003:00001140       __matherr_flag             10023140     LIBCMT:matherr.obj
 0003:00001150       __NLG_Destination          10023150     LIBCMT:exsup.obj
 0003:00001160       __lookuptrailbytes         10023160     LIBCMT:read.obj
 0003:00001260       __days                     10023260     LIBCMT:days.obj
 0003:00001294       __lpdays                   10023294     LIBCMT:days.obj
 0003:000012f8       __confh                    100232f8     LIBCMT:initcon.obj
 0003:00001300       __pow10pos                 10023300     LIBCMT:constpow.obj
 0003:00001460       __pow10neg                 10023460     LIBCMT:constpow.obj
 0003:000015c0       __HUGE                     100235c0     LIBCMT:huge.obj
 0003:000015f8       ??_R0?AVbad_alloc@std@@@8  100235f8     libcpmt:xthrow.obj
 0003:00001614       ??_R0?AVexception@std@@@8  10023614     libcpmt:xthrow.obj
 0003:00001630       ??_R0?AVlogic_error@std@@@8 10023630     libcpmt:xthrow.obj
 0003:00001650       ??_R0?AVlength_error@std@@@8 10023650     libcpmt:xthrow.obj
 0003:00001670       ??_R0?AVout_of_range@std@@@8 10023670     libcpmt:xthrow.obj
 0003:00001690       ??_R0?AVruntime_error@std@@@8 10023690     libcpmt:xthrow.obj
 0003:000016b0       ??_R0?AV_Facet_base@std@@@8 100236b0     libcpmt:locale0.obj
 0003:000016d0       ??_R0?AV_Locimp@locale@std@@@8 100236d0     libcpmt:locale0.obj
 0003:000016f4       ??_R0?AVfacet@locale@std@@@8 100236f4     libcpmt:locale0.obj
 0003:00001714       ??_R0?AVfailure@ios_base@std@@@8 10023714     libcpmt:cout.obj
 0003:00001738       ??_R0?AVsystem_error@std@@@8 10023738     libcpmt:cout.obj
 0003:00001758       ??_R0?AV_System_error@std@@@8 10023758     libcpmt:cout.obj
 0003:00001778       ??_R0?AVbad_cast@std@@@8   10023778     libcpmt:cout.obj
 0003:00001794       ??_R0?AVios_base@std@@@8   10023794     libcpmt:cout.obj
 0003:000017b0       ??_R0?AV?$_Iosb@H@std@@@8  100237b0     libcpmt:cout.obj
 0003:000017cc       ??_R0?AV?$basic_ios@DU?$char_traits@D@std@@@std@@@8 100237cc     libcpmt:cout.obj
 0003:00001804       ??_R0?AV?$basic_streambuf@DU?$char_traits@D@std@@@std@@@8 10023804     libcpmt:cout.obj
 0003:00001840       ??_R0?AV?$basic_ostream@DU?$char_traits@D@std@@@std@@@8 10023840     libcpmt:cout.obj
 0003:0000187c       ??_R0?AV?$basic_filebuf@DU?$char_traits@D@std@@@std@@@8 1002387c     libcpmt:cout.obj
 0003:000018b8       ??_R0?AVcodecvt_base@std@@@8 100238b8     libcpmt:cout.obj
 0003:000018d8       ??_R0?AUctype_base@std@@@8 100238d8     libcpmt:cout.obj
 0003:000018f8       ??_R0?AV?$ctype@D@std@@@8  100238f8     libcpmt:cout.obj
 0003:00001914       ??_R0?AV?$codecvt@DDH@std@@@8 10023914     libcpmt:cout.obj
 0003:00001934       ??_R0?AVtype_info@@@8      10023934     LIBCMT:typinfo.obj
 0003:0000194c       ??_R0?AVbad_exception@std@@@8 1002394c     LIBCMT:frame.obj
 0003:00001988       ?_Id_cnt@id@locale@std@@0HA 10023988     libcpmt:locale0.obj
 0003:00001990       ?_Clocptr@_Locimp@locale@std@@0PAV123@A 10023990     libcpmt:locale0.obj
 0003:00001998       ?id@?$ctype@D@std@@2V0locale@2@A 10023998     libcpmt:locale0.obj
 0003:0000199c       ?id@?$codecvt@GDH@std@@2V0locale@2@A 1002399c     libcpmt:locale0.obj
 0003:000019a4       ?id@?$ctype@_W@std@@2V0locale@2@A 100239a4     libcpmt:locale0.obj
 0003:000019a8       ?id@?$codecvt@_WDH@std@@2V0locale@2@A 100239a8     libcpmt:locale0.obj
 0003:000019b0       ?id@?$ctype@G@std@@2V0locale@2@A 100239b0     libcpmt:locale0.obj
 0003:00001a18       ?cout@std@@3V?$basic_ostream@DU?$char_traits@D@std@@@1@A 10023a18     libcpmt:cout.obj
 0003:00001a68       ?id@?$codecvt@DDH@std@@2V0locale@2@A 10023a68     libcpmt:cout.obj
 0003:00001a6c       ?_Stinit@?1??_Init@?$basic_filebuf@DU?$char_traits@D@std@@@std@@IAEXPAU_iobuf@@W4_Initfl@23@@Z@4HA 10023a6c     libcpmt:cout.obj
 0003:00001a70       ?_Psave@?$_Facetptr@V?$codecvt@DDH@std@@@std@@2PBVfacet@locale@2@B 10023a70     libcpmt:cout.obj
 0003:00001a74       ?_Raise_handler@std@@3P6AXABVexception@stdext@@@ZA 10023a74     libcpmt:raisehan.obj
 0003:00001ae0       ?_Ptr_cin@std@@3PAV?$basic_istream@DU?$char_traits@D@std@@@1@A 10023ae0     libcpmt:iosptrs.obj
 0003:00001ae4       ?_Ptr_cout@std@@3PAV?$basic_ostream@DU?$char_traits@D@std@@@1@A 10023ae4     libcpmt:iosptrs.obj
 0003:00001ae8       ?_Ptr_cerr@std@@3PAV?$basic_ostream@DU?$char_traits@D@std@@@1@A 10023ae8     libcpmt:iosptrs.obj
 0003:00001aec       ?_Ptr_clog@std@@3PAV?$basic_ostream@DU?$char_traits@D@std@@@1@A 10023aec     libcpmt:iosptrs.obj
 0003:00001af0       ?_Ptr_wcin@std@@3PAV?$basic_istream@_WU?$char_traits@_W@std@@@1@A 10023af0     libcpmt:iosptrs.obj
 0003:00001af4       ?_Ptr_wcout@std@@3PAV?$basic_ostream@_WU?$char_traits@_W@std@@@1@A 10023af4     libcpmt:iosptrs.obj
 0003:00001af8       ?_Ptr_wcerr@std@@3PAV?$basic_ostream@_WU?$char_traits@_W@std@@@1@A 10023af8     libcpmt:iosptrs.obj
 0003:00001afc       ?_Ptr_wclog@std@@3PAV?$basic_ostream@_WU?$char_traits@_W@std@@@1@A 10023afc     libcpmt:iosptrs.obj
 0003:00001b30       ?id@?$num_get@DV?$istreambuf_iterator@DU?$char_traits@D@std@@@std@@@std@@2V0locale@2@A 10023b30     libcpmt:locale.obj
 0003:00001b34       ?id@?$num_put@DV?$ostreambuf_iterator@DU?$char_traits@D@std@@@std@@@std@@2V0locale@2@A 10023b34     libcpmt:locale.obj
 0003:00001b38       ?_Index@ios_base@std@@0HA  10023b38     libcpmt:ios.obj
 0003:00001b74       ?id@?$time_put@_WV?$ostreambuf_iterator@_WU?$char_traits@_W@std@@@std@@@std@@2V0locale@2@A 10023b74     libcpmt:wlocale.obj
 0003:00001b78       ?id@?$num_get@_WV?$istreambuf_iterator@_WU?$char_traits@_W@std@@@std@@@std@@2V0locale@2@A 10023b78     libcpmt:wlocale.obj
 0003:00001b7c       ?id@?$num_put@_WV?$ostreambuf_iterator@_WU?$char_traits@_W@std@@@std@@@std@@2V0locale@2@A 10023b7c     libcpmt:wlocale.obj
 0003:00001b80       ?id@?$collate@_W@std@@2V0locale@2@A 10023b80     libcpmt:wlocale.obj
 0003:00001b84       ?id@?$messages@_W@std@@2V0locale@2@A 10023b84     libcpmt:wlocale.obj
 0003:00001b88       ?id@?$money_get@_WV?$istreambuf_iterator@_WU?$char_traits@_W@std@@@std@@@std@@2V0locale@2@A 10023b88     libcpmt:wlocale.obj
 0003:00001b8c       ?id@?$money_put@_WV?$ostreambuf_iterator@_WU?$char_traits@_W@std@@@std@@@std@@2V0locale@2@A 10023b8c     libcpmt:wlocale.obj
 0003:00001b90       ?id@?$moneypunct@_W$0A@@std@@2V0locale@2@A 10023b90     libcpmt:wlocale.obj
 0003:00001b94       ?id@?$moneypunct@_W$00@std@@2V0locale@2@A 10023b94     libcpmt:wlocale.obj
 0003:00001b98       ?id@?$time_get@_WV?$istreambuf_iterator@_WU?$char_traits@_W@std@@@std@@@std@@2V0locale@2@A 10023b98     libcpmt:wlocale.obj
 0003:00001b9c       ?id@?$num_get@GV?$istreambuf_iterator@GU?$char_traits@G@std@@@std@@@std@@2V0locale@2@A 10023b9c     libcpmt:wlocale.obj
 0003:00001ba0       ?id@?$num_put@GV?$ostreambuf_iterator@GU?$char_traits@G@std@@@std@@@std@@2V0locale@2@A 10023ba0     libcpmt:wlocale.obj
 0003:00001ba4       ?id@?$numpunct@G@std@@2V0locale@2@A 10023ba4     libcpmt:wlocale.obj
 0003:00001ba8       ?id@?$collate@G@std@@2V0locale@2@A 10023ba8     libcpmt:wlocale.obj
 0003:00001bac       ?id@?$messages@G@std@@2V0locale@2@A 10023bac     libcpmt:wlocale.obj
 0003:00001bb0       ?id@?$money_get@GV?$istreambuf_iterator@GU?$char_traits@G@std@@@std@@@std@@2V0locale@2@A 10023bb0     libcpmt:wlocale.obj
 0003:00001bb4       ?id@?$money_put@GV?$ostreambuf_iterator@GU?$char_traits@G@std@@@std@@@std@@2V0locale@2@A 10023bb4     libcpmt:wlocale.obj
 0003:00001bb8       ?id@?$moneypunct@G$0A@@std@@2V0locale@2@A 10023bb8     libcpmt:wlocale.obj
 0003:00001bbc       ?id@?$moneypunct@G$00@std@@2V0locale@2@A 10023bbc     libcpmt:wlocale.obj
 0003:00001bc0       ?id@?$time_get@GV?$istreambuf_iterator@GU?$char_traits@G@std@@@std@@@std@@2V0locale@2@A 10023bc0     libcpmt:wlocale.obj
 0003:00001bc4       ?id@?$time_put@GV?$ostreambuf_iterator@GU?$char_traits@G@std@@@std@@@std@@2V0locale@2@A 10023bc4     libcpmt:wlocale.obj
 0003:00001bcc       ?id@?$collate@D@std@@2V0locale@2@A 10023bcc     libcpmt:xlocale.obj
 0003:00001bd0       ?id@?$messages@D@std@@2V0locale@2@A 10023bd0     libcpmt:xlocale.obj
 0003:00001bd4       ?id@?$money_get@DV?$istreambuf_iterator@DU?$char_traits@D@std@@@std@@@std@@2V0locale@2@A 10023bd4     libcpmt:xlocale.obj
 0003:00001bd8       ?id@?$money_put@DV?$ostreambuf_iterator@DU?$char_traits@D@std@@@std@@@std@@2V0locale@2@A 10023bd8     libcpmt:xlocale.obj
 0003:00001bdc       ?id@?$moneypunct@D$0A@@std@@2V0locale@2@A 10023bdc     libcpmt:xlocale.obj
 0003:00001be0       ?id@?$moneypunct@D$00@std@@2V0locale@2@A 10023be0     libcpmt:xlocale.obj
 0003:00001be4       ?id@?$time_get@DV?$istreambuf_iterator@DU?$char_traits@D@std@@@std@@@std@@2V0locale@2@A 10023be4     libcpmt:xlocale.obj
 0003:00001be8       ?id@?$time_put@DV?$ostreambuf_iterator@DU?$char_traits@D@std@@@std@@@std@@2V0locale@2@A 10023be8     libcpmt:xlocale.obj
 0003:00001bf0       __FZero                    10023bf0     libcpmt:xfvalues.obj
 0003:00001bf8       __Zero                     10023bf8     libcpmt:xvalues.obj
 0003:00001c00       __LZero                    10023c00     libcpmt:xlvalues.obj
 0003:00001c08       ___pInvalidArgHandler      10023c08     LIBCMT:invarg.obj
 0003:00001c10       __aenvptr                  10023c10     LIBCMT:dllcrt0.obj
 0003:00001c14       __wenvptr                  10023c14     LIBCMT:dllcrt0.obj
 0003:00001c18       ___fastflag                10023c18     LIBCMT:fpinit.obj
 0003:00001c1c       __cflush                   10023c1c     LIBCMT:_file.obj
 0003:00001d70       __maxwait                  10023d70     LIBCMT:crtheap.obj
 0003:00001d74       ___lconv_static_null       10023d74     LIBCMT:lconv.obj
 0003:00001d78       ___lconv_static_W_null     10023d78     LIBCMT:lconv.obj
 0003:000020a0       ___isa_available           100240a0     LIBCMT:cpu_disp.obj
 0003:000020a4       ___favor                   100240a4     LIBCMT:cpu_disp.obj
 0003:000020a8       __C_Exit_Done              100240a8     LIBCMT:crt0dat.obj
 0003:000020ac       ___argc                    100240ac     LIBCMT:crt0dat.obj
 0003:000020b0       ___argv                    100240b0     LIBCMT:crt0dat.obj
 0003:000020b4       ___wargv                   100240b4     LIBCMT:crt0dat.obj
 0003:000020b8       __environ                  100240b8     LIBCMT:crt0dat.obj
 0003:000020bc       __wenviron                 100240bc     LIBCMT:crt0dat.obj
 0003:000020c0       __pgmptr                   100240c0     LIBCMT:crt0dat.obj
 0003:000020c4       __wpgmptr                  100240c4     LIBCMT:crt0dat.obj
 0003:000020c8       __umaskval                 100240c8     LIBCMT:crt0dat.obj
 0003:000020cc       __exitflag                 100240cc     LIBCMT:crt0dat.obj
 0003:000020d0       __C_Termination_Done       100240d0     LIBCMT:crt0dat.obj
 0003:000020d4       ___winitenv                100240d4     LIBCMT:crt0dat.obj
 0003:000020d8       ___initenv                 100240d8     LIBCMT:crt0dat.obj
 0003:000020dc       ___pPurecall               100240dc     LIBCMT:inithelp.obj
 0003:000020e0       ?_pnhHeap@@3P6AHI@ZA       100240e0     LIBCMT:handler.obj
 0003:000020f8       __crtheap                  100240f8     LIBCMT:heapinit.obj
 0003:000020fc       ___mbcodepage              100240fc     LIBCMT:mbctype.obj
 0003:00002100       ___ismbcodepage            10024100     LIBCMT:mbctype.obj
 0003:00002104       ___mbulinfo                10024104     LIBCMT:mbctype.obj
 0003:00002110       ___mblocalename            10024110     LIBCMT:mbctype.obj
 0003:00002118       ___locale_changed          10024118     LIBCMT:wsetloca.obj
 0003:00002120       ___pioinfo                 10024120     LIBCMT:ioinit.obj
 0003:00002328       ?__pInconsistency@@3P6AXXZA 10024328     LIBCMT:hooks.obj
 0003:0000232c       ?g_OutOfMemoryExceptionCallback@@3P6GPAXXZA 1002432c     LIBCMT:frame.obj
 0003:00002338       ___app_type                10024338     LIBCMT:crt0msg.obj
 0003:00002968       __newmode                  10024968     LIBCMT:_newmode.obj
 0003:00002a30       __stdbuf                   10024a30     LIBCMT:_sftbuf.obj
 0003:00002a38       ?pArgList@UnDecorator@@0PAVReplicator@@A 10024a38     LIBCMT:undname.obj
 0003:00002a3c       ?pZNameList@UnDecorator@@0PAVReplicator@@A 10024a3c     LIBCMT:undname.obj
 0003:00002a40       ?pTemplateArgList@UnDecorator@@0PAVReplicator@@A 10024a40     LIBCMT:undname.obj
 0003:00002a44       ?gName@UnDecorator@@0PBDB  10024a44     LIBCMT:undname.obj
 0003:00002a48       ?name@UnDecorator@@0PBDB   10024a48     LIBCMT:undname.obj
 0003:00002a4c       ?outputString@UnDecorator@@0PADA 10024a4c     LIBCMT:undname.obj
 0003:00002a50       ?maxStringLength@UnDecorator@@0HA 10024a50     LIBCMT:undname.obj
 0003:00002a54       ?disableFlags@UnDecorator@@0KA 10024a54     LIBCMT:undname.obj
 0003:00002a58       ?fExplicitTemplateParams@UnDecorator@@0_NA 10024a58     LIBCMT:undname.obj
 0003:00002a59       ?fGetTemplateArgumentList@UnDecorator@@0_NA 10024a59     LIBCMT:undname.obj
 0003:00002a5c       ?m_pGetParameter@UnDecorator@@0P6APADJ@ZA 10024a5c     LIBCMT:undname.obj
 0003:00002a74       __outputformat             10024a74     LIBCMT:outputformat.obj
 0003:00002a78       ___error_mode              10024a78     LIBCMT:errmode.obj
 0003:00002a94       ?_Psave@?$_Facetptr@V?$ctype@D@std@@@std@@2PBVfacet@locale@2@B 10024a94     nslog_win.obj
 0003:00002a98       ?id@?$num_put@_WV?$back_insert_iterator@V?$basic_string@_WU?$char_traits@_W@std@@V?$allocator@_W@2@@std@@@std@@@std@@2V0locale@2@A 10024a98     main.obj
 0003:00002a9c       ?_System_object@?$_Error_objects@H@std@@2V_System_error_category@2@A 10024a9c     main.obj
 0003:00002aa0       ?id@?$numpunct@_W@std@@2V0locale@2@A 10024aa0     main.obj
 0003:00002aa4       ?id@?$num_put@DV?$back_insert_iterator@V?$basic_string@DU?$char_traits@D@std@@V?$allocator@D@2@@std@@@std@@@std@@2V0locale@2@A 10024aa4     main.obj
 0003:00002aa8       ?_Generic_object@?$_Error_objects@H@std@@2V_Generic_error_category@2@A 10024aa8     main.obj
 0003:00002aac       ?id@?$numpunct@D@std@@2V0locale@2@A 10024aac     main.obj
 0003:00002ab4       ?_Iostream_object@?$_Error_objects@H@std@@2V_Iostream_error_category@2@A 10024ab4     main.obj
 0003:00002ab8       __nhandle                  10024ab8     <common>
 0003:00002abc       __debugger_hook_dummy      10024abc     <common>
 0003:00002ac0       ___dyn_tls_init_callback   10024ac0     <common>
 0003:00002ac4       ___onexitend               10024ac4     <common>
 0003:00002ac8       ___onexitbegin             10024ac8     <common>
 0003:00002acc       ___mbctype_initialized     10024acc     <common>
 0003:00002ad0       ___env_initialized         10024ad0     <common>
 0003:00002ae0       _encodedKERNEL32Functions  10024ae0     <common>
 0003:00002b80       __bufin                    10024b80     <common>
 0003:00003b80       ___piob                    10025b80     <common>
 0003:00003b84       __nstream                  10025b84     <common>
 0003:00003b88       __acmdln                   10025b88     <common>

 entry point at        0001:00003f0d

 Static symbols

 0000:fffd7000       .debug$S                   10000000     kernel32:KERNEL32.dll
 0000:fffd7000       .debug$S                   10000000     node:node.dll
 0000:fffd7000       .debug$S                   10000000     node:node.dll
 0000:fffd7000       .debug$S                   10000000     node:node.dll
 0000:fffd7000       .debug$S                   10000000     node:node.dll
 0000:fffd7000       .debug$S                   10000000     node:node.dll
 0000:fffd7000       .debug$S                   10000000     node:node.dll
 0000:fffd7000       .debug$S                   10000000     node:node.dll
 0000:fffd7000       .debug$S                   10000000     node:node.dll
 0000:fffd7000       .debug$S                   10000000     node:node.dll
 0000:fffd7000       .debug$S                   10000000     node:node.dll
 0000:fffd7000       .debug$S                   10000000     node:node.dll
 0000:fffd7000       .debug$S                   10000000     node:node.dll
 0000:fffd7000       .debug$S                   10000000     kernel32:KERNEL32.dll
 0000:fffd7000       .debug$S                   10000000     kernel32:KERNEL32.dll
 0000:fffd7000       .debug$S                   10000000     kernel32:KERNEL32.dll
 0000:fffd7000       .debug$S                   10000000     kernel32:KERNEL32.dll
 0000:fffd7000       .debug$S                   10000000     kernel32:KERNEL32.dll
 0000:fffd7000       .debug$S                   10000000     kernel32:KERNEL32.dll
 0000:fffd7000       .debug$S                   10000000     kernel32:KERNEL32.dll
 0000:fffd7000       .debug$S                   10000000     kernel32:KERNEL32.dll
 0000:fffd7000       .debug$S                   10000000     kernel32:KERNEL32.dll
 0000:fffd7000       .debug$S                   10000000     kernel32:KERNEL32.dll
 0000:fffd7000       .debug$S                   10000000     kernel32:KERNEL32.dll
 0000:fffd7000       .debug$S                   10000000     kernel32:KERNEL32.dll
 0000:fffd7000       .debug$S                   10000000     kernel32:KERNEL32.dll
 0000:fffd7000       .debug$S                   10000000     kernel32:KERNEL32.dll
 0000:fffd7000       .debug$S                   10000000     kernel32:KERNEL32.dll
 0000:fffd7000       .debug$S                   10000000     kernel32:KERNEL32.dll
 0000:fffd7000       .debug$S                   10000000     kernel32:KERNEL32.dll
 0000:fffd7000       .debug$S                   10000000     kernel32:KERNEL32.dll
 0000:fffd7000       .debug$S                   10000000     kernel32:KERNEL32.dll
 0000:fffd7000       .debug$S                   10000000     kernel32:KERNEL32.dll
 0000:fffd7000       .debug$S                   10000000     kernel32:KERNEL32.dll
 0000:fffd7000       .debug$S                   10000000     kernel32:KERNEL32.dll
 0000:fffd7000       .debug$S                   10000000     kernel32:KERNEL32.dll
 0000:fffd7000       .debug$S                   10000000     kernel32:KERNEL32.dll
 0000:fffd7000       .debug$S                   10000000     kernel32:KERNEL32.dll
 0000:fffd7000       .debug$S                   10000000     kernel32:KERNEL32.dll
 0000:fffd7000       .debug$S                   10000000     kernel32:KERNEL32.dll
 0000:fffd7000       .debug$S                   10000000     kernel32:KERNEL32.dll
 0000:fffd7000       .debug$S                   10000000     kernel32:KERNEL32.dll
 0000:fffd7000       .debug$S                   10000000     kernel32:KERNEL32.dll
 0000:fffd7000       .debug$S                   10000000     kernel32:KERNEL32.dll
 0000:fffd7000       .debug$S                   10000000     kernel32:KERNEL32.dll
 0000:fffd7000       .debug$S                   10000000     kernel32:KERNEL32.dll
 0000:fffd7000       .debug$S                   10000000     kernel32:KERNEL32.dll
 0000:fffd7000       .debug$S                   10000000     kernel32:KERNEL32.dll
 0000:fffd7000       .debug$S                   10000000     kernel32:KERNEL32.dll
 0000:fffd7000       .debug$S                   10000000     kernel32:KERNEL32.dll
 0000:fffd7000       .debug$S                   10000000     kernel32:KERNEL32.dll
 0000:fffd7000       .debug$S                   10000000     kernel32:KERNEL32.dll
 0000:fffd7000       .debug$S                   10000000     kernel32:KERNEL32.dll
 0000:fffd7000       .debug$S                   10000000     kernel32:KERNEL32.dll
 0000:fffd7000       .debug$S                   10000000     kernel32:KERNEL32.dll
 0000:fffd7000       .debug$S                   10000000     kernel32:KERNEL32.dll
 0000:fffd7000       .debug$S                   10000000     kernel32:KERNEL32.dll
 0000:fffd7000       .debug$S                   10000000     kernel32:KERNEL32.dll
 0000:fffd7000       .debug$S                   10000000     kernel32:KERNEL32.dll
 0000:fffd7000       .debug$S                   10000000     kernel32:KERNEL32.dll
 0000:fffd7000       .debug$S                   10000000     kernel32:KERNEL32.dll
 0000:fffd7000       .debug$S                   10000000     kernel32:KERNEL32.dll
 0000:fffd7000       .debug$S                   10000000     kernel32:KERNEL32.dll
 0000:fffd7000       .debug$S                   10000000     kernel32:KERNEL32.dll
 0000:fffd7000       .debug$S                   10000000     kernel32:KERNEL32.dll
 0000:fffd7000       .debug$S                   10000000     kernel32:KERNEL32.dll
 0000:fffd7000       .debug$S                   10000000     kernel32:KERNEL32.dll
 0000:fffd7000       .debug$S                   10000000     kernel32:KERNEL32.dll
 0000:fffd7000       .debug$S                   10000000     kernel32:KERNEL32.dll
 0000:fffd7000       .debug$S                   10000000     kernel32:KERNEL32.dll
 0000:fffd7000       .debug$S                   10000000     kernel32:KERNEL32.dll
 0000:fffd7000       .debug$S                   10000000     kernel32:KERNEL32.dll
 0000:fffd7000       .debug$S                   10000000     kernel32:KERNEL32.dll
 0000:fffd7000       .debug$S                   10000000     kernel32:KERNEL32.dll
 0000:fffd7000       .debug$S                   10000000     kernel32:KERNEL32.dll
 0000:fffd7000       .debug$S                   10000000     kernel32:KERNEL32.dll
 0000:fffd7000       .debug$S                   10000000     kernel32:KERNEL32.dll
 0000:fffd7000       .debug$S                   10000000     node:node.dll
 0000:fffd7000       .debug$S                   10000000     kernel32:KERNEL32.dll
 0000:fffd7000       .debug$S                   10000000     kernel32:KERNEL32.dll
 0000:fffd7000       .debug$S                   10000000     kernel32:KERNEL32.dll
 0000:fffd7000       .debug$S                   10000000     kernel32:KERNEL32.dll
 0000:fffd7000       .debug$S                   10000000     kernel32:KERNEL32.dll
 0000:fffd7000       .debug$S                   10000000     kernel32:KERNEL32.dll
 0000:fffd7000       .debug$S                   10000000     kernel32:KERNEL32.dll
 0000:fffd7000       .debug$S                   10000000     kernel32:KERNEL32.dll
 0000:fffd7000       .debug$S                   10000000     kernel32:KERNEL32.dll
 0000:fffd7000       .debug$S                   10000000     kernel32:KERNEL32.dll
 0000:fffd7000       .debug$S                   10000000     kernel32:KERNEL32.dll
 0000:fffd7000       .debug$S                   10000000     kernel32:KERNEL32.dll
 0000:fffd7000       .debug$S                   10000000     kernel32:KERNEL32.dll
 0000:fffd7000       .debug$S                   10000000     kernel32:KERNEL32.dll
 0000:fffd7000       .debug$S                   10000000     kernel32:KERNEL32.dll
 0000:fffd7000       .debug$S                   10000000     kernel32:KERNEL32.dll
 0000:fffd7000       .debug$S                   10000000     node:node.dll
 0000:fffd7000       .debug$S                   10000000     node:node.dll
 0000:fffd7000       .debug$S                   10000000     node:node.dll
 0000:fffd7000       .debug$S                   10000000     node:node.dll
 0000:fffd7000       .debug$S                   10000000     node:node.dll
 0000:fffd7000       .debug$S                   10000000     node:node.dll
 0000:fffd7000       .debug$S                   10000000     node:node.dll
 0000:fffd7000       .debug$S                   10000000     node:node.dll
 0000:fffd7000       .debug$S                   10000000     node:node.dll
 0000:fffd7000       .debug$S                   10000000     node:node.dll
 0000:fffd7000       .debug$S                   10000000     node:node.dll
 0000:fffd7000       .debug$S                   10000000     node:node.dll
 0000:fffd7000       .debug$S                   10000000     node:node.dll
 0000:fffd7000       .debug$S                   10000000     node:node.dll
 0000:fffd7000       .debug$S                   10000000     node:node.dll
 0000:fffd7000       .debug$S                   10000000     node:node.dll
 0000:fffd7000       .debug$S                   10000000     node:node.dll
 0001:00000000       ??__E_Fac_tidy_reg@std@@YAXXZ 10001000 f   libcpmt:locale0.obj
 0001:0000000c       ??__Eclassic_locale@std@@YAXXZ 1000100c f   libcpmt:locale0.obj
 0001:00000018       ??__Ecout@std@@YAXXZ       10001018 f   libcpmt:cout.obj
 0001:00000037       ??__Efout@std@@YAXXZ       10001037 f   libcpmt:cout.obj
 0001:0000006f       ??__Einit_cout@std@@YAXXZ  1000106f f   libcpmt:cout.obj
 0001:00000079       ??__Einitlocks@@YAXXZ      10001079 f   libcpmt:cout.obj
 0001:0000008f       ??__Einitlocks@std@@YAXXZ  1000108f f   libcpmt:xlock.obj
 0001:000000a5       ??__Einit_atexit@@YAXXZ    100010a5 f   libcpmt:iosptrs.obj
 0001:000000b1       ??__Einitlocks@std@@YAXXZ  100010b1 f   libcpmt:iosptrs.obj
 0001:000000d0       ?FunctionCallbackWrapper@imp@Nan@@YAXABV?$FunctionCallbackInfo@VValue@v8@@@v8@@@Z 100010d0 f   main.obj
 0001:00001dce       _tidy_global               10002dce f   libcpmt:locale0.obj
 0001:000032e0       $$000000                   100042e0     LIBCMT:memmove.obj
 0001:00003530       LeadUpVec                  10004530     LIBCMT:memmove.obj
 0001:000035ac       UnwindUpVec                100045ac     LIBCMT:memmove.obj
 0001:00003618       TrailUpVec                 10004618     LIBCMT:memmove.obj
 0001:000036bc       LeadDownVec                100046bc     LIBCMT:memmove.obj
 0001:00003748       UnwindDownVec              10004748     LIBCMT:memmove.obj
 0001:000037b4       TrailDownVec               100047b4     LIBCMT:memmove.obj
 0001:00003997       __onexit_nolock            10004997 f   LIBCMT:onexit.obj
 0001:00003f30       ___DllMainCRTStartup       10004f30 f   LIBCMT:dllcrt0.obj
 0001:00004070       $$000000                   10005070     LIBCMT:memcpy.obj
 0001:000042c0       LeadUpVec                  100052c0     LIBCMT:memcpy.obj
 0001:0000433c       UnwindUpVec                1000533c     LIBCMT:memcpy.obj
 0001:000043a8       TrailUpVec                 100053a8     LIBCMT:memcpy.obj
 0001:0000444c       LeadDownVec                1000544c     LIBCMT:memcpy.obj
 0001:000044d8       UnwindDownVec              100054d8     LIBCMT:memcpy.obj
 0001:00004544       TrailDownVec               10005544     LIBCMT:memcpy.obj
 0001:000046c0       $$000000                   100056c0     LIBCMT:strlen.obj
 0001:00004870       ?CatchGuardHandler@@YA?AW4_EXCEPTION_DISPOSITION@@PAUEHExceptionRecord@@PAUCatchGuardRN@@PAX2@Z 10005870 f   LIBCMT:_trnsctrl_.obj
 0001:000048a1       ?TranslatorGuardHandler@@YA?AW4_EXCEPTION_DISPOSITION@@PAUEHExceptionRecord@@PAUTranslatorGuardRN@@PAX2@Z 100058a1 f   LIBCMT:_trnsctrl_.obj
 0001:0000545d       _flsall                    1000645d f   LIBCMT:fflush.obj
 0001:00005db0       $$000000                   10006db0     LIBCMT:memset.obj
 0001:00006598       ?__crtLCMapStringA_stat@@YAHPAUlocaleinfo_struct@@PB_WKPBDHPADHHH@Z 10007598 f   LIBCMT:a_map.obj
 0001:000068e0       $$000000                   100078e0     LIBCMT:strcmp.obj
 0001:00006970       $$000000                   10007970     LIBCMT:strcspn.obj
 0001:00006dee       ?x_ismbbtype_l@@YAHPAUlocaleinfo_struct@@IHH@Z 10007dee f   LIBCMT:ismbbyte.obj
 0001:00006ff0       $$000000                   10007ff0     LIBCMT:memchr.obj
 0001:000070a0       $$000000                   100080a0     LIBCMT:llmul.obj
 0001:000070e0       $$000000                   100080e0     LIBCMT:ulldiv.obj
 0001:00008840       $LN1281                    10009840     LIBCMT:memcmp.obj
 0001:000089e9       ___crtEnumLocalesProc@4    100099e9 f   LIBCMT:winapinls.obj
 0001:00008bb0       $$000000                   10009bb0     LIBCMT:sqrt.obj
 0001:00009249       __initterm                 1000a249 f   LIBCMT:crt0dat.obj
 0001:000092b3       _doexit                    1000a2b3 f   LIBCMT:crt0dat.obj
 0001:00009420       $$000000                   1000a420     LIBCMT:sehprolg4.obj
 0001:0000a13d       _siglookup                 1000b13d f   LIBCMT:winsig.obj
 0001:0000a514       ?CPtoLocaleName@@YAPB_WH@Z 1000b514 f   LIBCMT:mbctype.obj
 0001:0000a54e       ?getSystemCP@@YAHH@Z       1000b54e f   LIBCMT:mbctype.obj
 0001:0000a5bc       ?setSBCS@@YAXPAUthreadmbcinfostruct@@@Z 1000b5bc f   LIBCMT:mbctype.obj
 0001:0000a61b       ?setSBUpLow@@YAXPAUthreadmbcinfostruct@@@Z 1000b61b f   LIBCMT:mbctype.obj
 0001:0000b171       __copytlocinfo_nolock      1000c171 f   LIBCMT:wsetloca.obj
 0001:0000b650       __wsetlocale_get_all       1000c650 f   LIBCMT:wsetloca.obj
 0001:0000b7bd       __wsetlocale_nolock        1000c7bd f   LIBCMT:wsetloca.obj
 0001:0000ba46       __wsetlocale_set_cat       1000ca46 f   LIBCMT:wsetloca.obj
 0001:0000c324       _parse_cmdline             1000d324 f   LIBCMT:stdargv.obj
 0001:0000c6f0       $$000000                   1000d6f0     LIBCMT:lowhelpr.obj
 0001:0000c8a2       ?CallCatchBlock@@YAPAXPAUEHExceptionRecord@@PAUEHRegistrationNode@@PAU_CONTEXT@@PBU_s_FuncInfo@@PAXHK@Z 1000d8a2 f   LIBCMT:frame.obj
 0001:0000ca68       ?CallUnexpected@@YAXPBU_s_ESTypeList@@@Z 1000da68 f   LIBCMT:frame.obj
 0001:0000ca90       __catch$?CallUnexpected@@YAXPBU_s_ESTypeList@@@Z$0 1000da90 f   LIBCMT:frame.obj
 0001:0000caa8       ?CatchIt@@YAXPAUEHExceptionRecord@@PAUEHRegistrationNode@@PAU_CONTEXT@@PAXPBU_s_FuncInfo@@PBU_s_HandlerType@@PBU_s_CatchableType@@PBU_s_TryBlockMapEntry@@H1E@Z 1000daa8 f   LIBCMT:frame.obj
 0001:0000cb23       ?ExFilterRethrow@@YAHPAU_EXCEPTION_POINTERS@@@Z 1000db23 f   LIBCMT:frame.obj
 0001:0000cb70       ?FindHandler@@YAXPAUEHExceptionRecord@@PAUEHRegistrationNode@@PAU_CONTEXT@@PAXPBU_s_FuncInfo@@EH1@Z 1000db70 f   LIBCMT:frame.obj
 0001:0000cf0d       ?FindHandlerForForeignException@@YAXPAUEHExceptionRecord@@PAUEHRegistrationNode@@PAU_CONTEXT@@PAXPBU_s_FuncInfo@@HH1@Z 1000df0d f   LIBCMT:frame.obj
 0001:0000d029       ?IsInExceptionSpec@@YAEPAUEHExceptionRecord@@PBU_s_ESTypeList@@@Z 1000e029 f   LIBCMT:frame.obj
 0001:0000da27       __cftoe2_l                 1000ea27 f   LIBCMT:cvt.obj
 0001:0000dc46       __cftof2_l                 1000ec46 f   LIBCMT:cvt.obj
 0001:0000e07c       __shift                    1000f07c f   LIBCMT:cvt.obj
 0001:00010015       ?__crtGetStringTypeA_stat@@YAHPAUlocaleinfo_struct@@KPBDHPAGHH@Z 10011015 f   LIBCMT:a_str.obj
 0001:00010150       $$000000                   10011150     LIBCMT:alloca16.obj
 0001:00010480       $$000000                   10011480     LIBCMT:87disp.obj
 0001:00010650       $$000000                   10011650     LIBCMT:genexcep.obj
 0001:000106b0       $$000000                   100116b0     LIBCMT:common.obj
 0001:00010990       $$000000                   10011990     LIBCMT:exsup4.obj
 0001:00010a20       __unwind_handler4          10011a20 f   LIBCMT:exsup4.obj
 0001:00010b86       ?__crtGetLocaleInfoA_stat@@YAHPAUlocaleinfo_struct@@PB_WKPADH@Z 10011b86 f   LIBCMT:a_loc.obj
 0001:000117aa       __get_lc_time              100127aa f   LIBCMT:inittime.obj
 0001:000121c8       _GetLocaleNameFromDefault  100131c8 f   LIBCMT:getqloc.obj
 0001:00012241       _GetLocaleNameFromLangCountry 10013241 f   LIBCMT:getqloc.obj
 0001:000122b5       _GetLocaleNameFromLanguage 100132b5 f   LIBCMT:getqloc.obj
 0001:000122ff       _GetPrimaryLen             100132ff f   LIBCMT:getqloc.obj
 0001:00012331       _LangCountryEnumProcEx@12  10013331 f   LIBCMT:getqloc.obj
 0001:00012551       _LanguageEnumProcEx@12     10013551 f   LIBCMT:getqloc.obj
 0001:00012604       _ProcessCodePage           10013604 f   LIBCMT:getqloc.obj
 0001:00012699       _TestDefaultCountry        10013699 f   LIBCMT:getqloc.obj
 0001:000126e5       _TranslateName             100136e5 f   LIBCMT:getqloc.obj
 0001:000126e5       _TranslateName             100136e5 f   LIBCMT:getqloc.obj
 0001:00012913       _CountryEnumProc@4         10013913 f   LIBCMT:getqloc_downlevel.obj
 0001:000129c3       _GetLcidFromCountry        100139c3 f   LIBCMT:getqloc_downlevel.obj
 0001:00012a03       _GetLcidFromLangCountry    10013a03 f   LIBCMT:getqloc_downlevel.obj
 0001:00012a80       _GetLcidFromLanguage       10013a80 f   LIBCMT:getqloc_downlevel.obj
 0001:00012ad9       _GetPrimaryLen             10013ad9 f   LIBCMT:getqloc_downlevel.obj
 0001:00012b03       _LangCountryEnumProc@4     10013b03 f   LIBCMT:getqloc_downlevel.obj
 0001:00012cf8       _LanguageEnumProc@4        10013cf8 f   LIBCMT:getqloc_downlevel.obj
 0001:00012dd3       _LcidFromHexString         10013dd3 f   LIBCMT:getqloc_downlevel.obj
 0001:00012e22       _ProcessCodePage           10013e22 f   LIBCMT:getqloc_downlevel.obj
 0001:00012ead       _TestDefaultCountry        10013ead f   LIBCMT:getqloc_downlevel.obj
 0001:00012ecf       _TestDefaultLanguage       10013ecf f   LIBCMT:getqloc_downlevel.obj
 0001:00013160       $$000000                   10014160     LIBCMT:exsup.obj
 0001:00013180       __unwind_handler           10014180 f   LIBCMT:exsup.obj
 0001:000132b0       $$000000                   100142b0     LIBCMT:strrchr.obj
 0001:00013740       $$000000                   10014740     LIBCMT:lldvrm.obj
 0001:00013820       $$000000                   10014820     LIBCMT:ullshr.obj
 0001:00013e10       $$000000                   10014e10     LIBCMT:chkstk.obj
 0001:000146e0       $$000000                   100156e0     LIBCMT:ulldvrm.obj
 0001:000149ae       _xtow_s@20                 100159ae f   LIBCMT:xtows.obj
 0001:00015f6e       $LN333                     10016f6e     LIBCMT:strgtold.obj
 0001:00016972       ___hw_cw_sse2              10017972 f   LIBCMT:ieee87.obj
 0001:00016d1d       __hw_cw                    10017d1d f   LIBCMT:ieee87.obj
 0001:00016dea       ?wcstoxl@@YAKPB_WPAPB_WHH@Z 10017dea f   LIBCMT:wcstol.obj
 0001:00017370       $$000000                   10018370     LIBCMT:strchr.obj
 0001:000174a0       $$000000                   100184a0     LIBCMT:_strnicm.obj
 0001:0001750e       __unwindfunclet$?_Locimp_dtor@_Locimp@locale@std@@CAXPAV123@@Z$0 1001850e f   libcpmt:locale0.obj
 0001:0001750e       __unwindfunclet$?_Init@locale@std@@CAPAV_Locimp@12@_N@Z$0 1001850e f   libcpmt:locale0.obj
 0001:00017516       __ehhandler$?_Init@locale@std@@CAPAV_Locimp@12@_N@Z 10018516 f   libcpmt:locale0.obj
 0001:00017516       __ehhandler$?_Locimp_dtor@_Locimp@locale@std@@CAXPAV123@@Z 10018516 f   libcpmt:locale0.obj
 0001:00017531       __unwindfunclet$??$use_facet@V?$codecvt@DDH@std@@@std@@YAABV?$codecvt@DDH@0@ABVlocale@0@@Z$0 10018531 f   libcpmt:cout.obj
 0001:00017539       __ehhandler$??$use_facet@V?$codecvt@DDH@std@@@std@@YAABV?$codecvt@DDH@0@ABVlocale@0@@Z 10018539 f   libcpmt:cout.obj
 0001:00017554       __unwindfunclet$??0?$basic_ostream@DU?$char_traits@D@std@@@std@@QAE@PAV?$basic_streambuf@DU?$char_traits@D@std@@@1@_N@Z$0 10018554 f   libcpmt:cout.obj
 0001:00017570       __ehhandler$??0?$basic_ostream@DU?$char_traits@D@std@@@std@@QAE@PAV?$basic_streambuf@DU?$char_traits@D@std@@@1@_N@Z 10018570 f   libcpmt:cout.obj
 0001:0001758b       __unwindfunclet$?_Endwrite@?$basic_filebuf@DU?$char_traits@D@std@@@std@@IAE_NXZ$0 1001858b f   libcpmt:cout.obj
 0001:00017593       __ehhandler$?_Endwrite@?$basic_filebuf@DU?$char_traits@D@std@@@std@@IAE_NXZ 10018593 f   libcpmt:cout.obj
 0001:000175b8       __unwindfunclet$?_Getcat@?$codecvt@DDH@std@@SAIPAPBVfacet@locale@2@PBV42@@Z$0 100185b8 f   libcpmt:cout.obj
 0001:000175c2       __ehhandler$?_Getcat@?$codecvt@DDH@std@@SAIPAPBVfacet@locale@2@PBV42@@Z 100185c2 f   libcpmt:cout.obj
 0001:000175dd       __unwindfunclet$?overflow@?$basic_filebuf@DU?$char_traits@D@std@@@std@@MAEHH@Z$0 100185dd f   libcpmt:cout.obj
 0001:000175e5       __ehhandler$?overflow@?$basic_filebuf@DU?$char_traits@D@std@@@std@@MAEHH@Z 100185e5 f   libcpmt:cout.obj
 0001:0001760a       __unwindfunclet$?uflow@?$basic_filebuf@DU?$char_traits@D@std@@@std@@MAEHXZ$0 1001860a f   libcpmt:cout.obj
 0001:00017612       __ehhandler$?uflow@?$basic_filebuf@DU?$char_traits@D@std@@@std@@MAEHXZ 10018612 f   libcpmt:cout.obj
 0001:00017637       __ehhandler$?CallUnexpected@@YAXPBU_s_ESTypeList@@@Z 10018637 f   LIBCMT:frame.obj
 0001:00017660       ??__F_Fac_tidy_reg@std@@YAXXZ 10018660 f   libcpmt:locale0.obj
 0001:0001766a       ??__Fclassic_locale@std@@YAXXZ 1001866a f   libcpmt:locale0.obj
 0001:00017674       ??__Fcout@std@@YAXXZ       10018674 f   libcpmt:cout.obj
 0001:0001767e       ??__Ffout@std@@YAXXZ       1001867e f   libcpmt:cout.obj
 0001:00017688       ??__Finitlocks@@YAXXZ      10018688 f   libcpmt:cout.obj
 0001:00017692       ??__Finitlocks@std@@YAXXZ  10018692 f   libcpmt:xlock.obj
 0001:0001769c       ??__Finit_atexit@@YAXXZ    1001869c f   libcpmt:iosptrs.obj
 0001:000176a6       ??__Finitlocks@std@@YAXXZ  100186a6 f   libcpmt:iosptrs.obj
 0002:00000178       _initlocks$initializer$    10019178     libcpmt:cout.obj
 0002:0000017c       _fout$initializer$         1001917c     libcpmt:cout.obj
 0002:00000180       _cout$initializer$         10019180     libcpmt:cout.obj
 0002:00000184       _init_cout$initializer$    10019184     libcpmt:cout.obj
 0002:00000188       _initlocks$initializer$    10019188     libcpmt:xlock.obj
 0002:0000018c       _initlocks$initializer$    1001918c     libcpmt:iosptrs.obj
 0002:00000190       _init_atexit$initializer$  10019190     libcpmt:iosptrs.obj
 0002:00000194       __Fac_tidy_reg$initializer$ 10019194     libcpmt:locale0.obj
 0002:00000198       _classic_locale$initializer$ 10019198     libcpmt:locale0.obj
 0002:000001a8       _pinit                     100191a8     LIBCMT:onexit.obj
 0002:000001ac       _pinit                     100191ac     LIBCMT:_file.obj
 0002:000001b0       _pinit                     100191b0     LIBCMT:cpu_disp.obj
 0002:000001b4       _pinit                     100191b4     LIBCMT:mbctype.obj
 0002:000001c0       _pterm                     100191c0     LIBCMT:wsetloca.obj
 0002:000001c4       _pterm                     100191c4     LIBCMT:initcon.obj
 0002:000001c8       _pterm                     100191c8     LIBCMT:_file.obj
 0002:00000218       __Win_errtab               10019218     libcpmt:syserror.obj
 0002:00000470       __Sys_errtab               10019470     libcpmt:syserror.obj
 0002:00001118       _digits                    1001a118     libcpmt:xstoul.obj
 0002:00001140       _ndigs                     1001a140     libcpmt:xstoul.obj
 0002:00001168       _digits                    1001a168     libcpmt:xstoull.obj
 0002:00001190       _ndigs                     1001a190     libcpmt:xstoull.obj
 0002:000011b8       ?digits@?1??_Stoxflt@@9@9  1001a1b8     libcpmt:xstoxflt.obj
 0002:000011d0       ?vals@?1??_Stoxflt@@9@9    1001a1d0     libcpmt:xstoxflt.obj
 0002:000011e8       _tenth                     1001a1e8     libcpmt:xfdtento.obj
 0002:000011f8       _tenth                     1001a1f8     libcpmt:xdtento.obj
 0002:00001210       _tenth                     1001a210     libcpmt:xldtento.obj
 0002:00001228       ?mask@?3??_FDint@@9@9      1001a228     libcpmt:xfdint.obj
 0002:00001248       ?sub@?3??_FDint@@9@9       1001a248     libcpmt:xfdint.obj
 0002:00001250       ?mask@?3??_Dint@@9@9       1001a250     libcpmt:xdint.obj
 0002:00001270       ?sub@?3??_Dint@@9@9        1001a270     libcpmt:xdint.obj
 0002:00001284       ?ExceptionTemplate@?1??_CxxThrowException@@9@8@4UEHExceptionRecord@@B 1001a284     LIBCMT:throw.obj
 0002:00003e78       _GS_ExceptionPointers      1001ce78     LIBCMT:gs_report.obj
 0002:00003f6c       __mb_locale_names          1001cf6c     LIBCMT:mbctype.obj
 0002:00004398       __first_127char            1001d398     LIBCMT:wsetloca.obj
 0002:00004508       _rterrs                    1001d508     LIBCMT:crt0msg.obj
 0002:00005044       One                        1001e044     LIBCMT:87disp.obj
 0002:0000504c       XAMtoTagTab                1001e04c     LIBCMT:87disp.obj
 0002:00005060       One                        1001e060     LIBCMT:common.obj
 0002:00005074       DblMax                     1001e074     LIBCMT:common.obj
 0002:0000507c       DblMin                     1001e07c     LIBCMT:common.obj
 0002:00005084       IeeeAdjO                   1001e084     LIBCMT:common.obj
 0002:0000508c       IeeeAdjU                   1001e08c     LIBCMT:common.obj
 0002:00005094       _infinity                  1001e094     LIBCMT:common.obj
 0002:0000509c       _zero                      1001e09c     LIBCMT:common.obj
 0002:00005e58       _tokenTable                1001ee58     LIBCMT:undname.obj
 0002:00005e90       _nameTable                 1001ee90     LIBCMT:undname.obj
 0002:00005fd0       _rttiTable                 1001efd0     LIBCMT:undname.obj
 0002:00007110       __unwindtable$?_Init@locale@std@@CAPAV_Locimp@12@_N@Z 10020110     libcpmt:locale0.obj
 0002:00007110       __unwindtable$?_Locimp_dtor@_Locimp@locale@std@@CAXPAV123@@Z 10020110     libcpmt:locale0.obj
 0002:00007118       __ehfuncinfo$?_Init@locale@std@@CAPAV_Locimp@12@_N@Z 10020118     libcpmt:locale0.obj
 0002:00007118       __ehfuncinfo$?_Locimp_dtor@_Locimp@locale@std@@CAXPAV123@@Z 10020118     libcpmt:locale0.obj
 0002:0000713c       __unwindtable$??0?$basic_ostream@DU?$char_traits@D@std@@@std@@QAE@PAV?$basic_streambuf@DU?$char_traits@D@std@@@1@_N@Z 1002013c     libcpmt:cout.obj
 0002:00007144       __ehfuncinfo$??0?$basic_ostream@DU?$char_traits@D@std@@@std@@QAE@PAV?$basic_streambuf@DU?$char_traits@D@std@@@1@_N@Z 10020144     libcpmt:cout.obj
 0002:00007168       __unwindtable$?overflow@?$basic_filebuf@DU?$char_traits@D@std@@@std@@MAEHH@Z 10020168     libcpmt:cout.obj
 0002:00007170       __ehfuncinfo$?overflow@?$basic_filebuf@DU?$char_traits@D@std@@@std@@MAEHH@Z 10020170     libcpmt:cout.obj
 0002:00007194       __unwindtable$?uflow@?$basic_filebuf@DU?$char_traits@D@std@@@std@@MAEHXZ 10020194     libcpmt:cout.obj
 0002:0000719c       __ehfuncinfo$?uflow@?$basic_filebuf@DU?$char_traits@D@std@@@std@@MAEHXZ 1002019c     libcpmt:cout.obj
 0002:000071c0       __unwindtable$?_Endwrite@?$basic_filebuf@DU?$char_traits@D@std@@@std@@IAE_NXZ 100201c0     libcpmt:cout.obj
 0002:000071c8       __ehfuncinfo$?_Endwrite@?$basic_filebuf@DU?$char_traits@D@std@@@std@@IAE_NXZ 100201c8     libcpmt:cout.obj
 0002:000071ec       __unwindtable$?_Getcat@?$codecvt@DDH@std@@SAIPAPBVfacet@locale@2@PBV42@@Z 100201ec     libcpmt:cout.obj
 0002:000071f4       __ehfuncinfo$?_Getcat@?$codecvt@DDH@std@@SAIPAPBVfacet@locale@2@PBV42@@Z 100201f4     libcpmt:cout.obj
 0002:00007218       __unwindtable$??$use_facet@V?$codecvt@DDH@std@@@std@@YAABV?$codecvt@DDH@0@ABVlocale@0@@Z 10020218     libcpmt:cout.obj
 0002:00007220       __ehfuncinfo$??$use_facet@V?$codecvt@DDH@std@@@std@@YAABV?$codecvt@DDH@0@ABVlocale@0@@Z 10020220     libcpmt:cout.obj
 0002:00007280       __sehtable$__onexit        10020280     LIBCMT:onexit.obj
 0002:000072a0       __sehtable$__CRT_INIT@12   100202a0     LIBCMT:dllcrt0.obj
 0002:000072c0       __sehtable$___DllMainCRTStartup 100202c0     LIBCMT:dllcrt0.obj
 0002:000072e0       __sehtable$_setlocale      100202e0     LIBCMT:setlocal.obj
 0002:00007300       __sehtable$_fclose         10020300     LIBCMT:fclose.obj
 0002:00007320       __sehtable$_fflush         10020320     LIBCMT:fflush.obj
 0002:00007340       __sehtable$_flsall         10020340     LIBCMT:fflush.obj
 0002:00007368       __sehtable$_fgetc          10020368     LIBCMT:fgetc.obj
 0002:00007388       __sehtable$_fputc          10020388     LIBCMT:fputc.obj
 0002:000073a8       __sehtable$__fseeki64      100203a8     LIBCMT:fseeki64.obj
 0002:000073c8       __sehtable$_fwrite         100203c8     LIBCMT:fwrite.obj
 0002:000073e8       __sehtable$_setvbuf        100203e8     LIBCMT:setvbuf.obj
 0002:00007408       __sehtable$_ungetc         10020408     LIBCMT:ungetc.obj
 0002:00007428       __sehtable$__mtinitlocknum 10020428     LIBCMT:mlock.obj
 0002:00007448       __sehtable$_doexit         10020448     LIBCMT:crt0dat.obj
 0002:00007468       __sehtable$___set_fpsr_sse2 10020468     LIBCMT:fpctrl.obj
 0002:00007488       __sehtable$_raise          10020488     LIBCMT:winsig.obj
 0002:000074a8       __sehtable$___updatetlocinfo 100204a8     LIBCMT:localref.obj
 0002:000074c8       __sehtable$___updatetmbcinfo 100204c8     LIBCMT:mbctype.obj
 0002:000074e8       __sehtable$__setmbcp       100204e8     LIBCMT:mbctype.obj
 0002:00007508       __sehtable$__freefls@4     10020508     LIBCMT:tidtable.obj
 0002:00007530       __sehtable$__initptd       10020530     LIBCMT:tidtable.obj
 0002:00007558       __sehtable$__wsetlocale    10020558     LIBCMT:wsetloca.obj
 0002:00007590       __sehtable$__locterm       10020590     LIBCMT:wsetloca.obj
 0002:000075b0       __sehtable$__ioinit        100205b0     LIBCMT:ioinit.obj
 0002:000075d0       __sehtable$?terminate@@YAXXZ 100205d0     LIBCMT:hooks.obj
 0002:000075f0       __sehtable$?_inconsistency@@YAXXZ 100205f0     LIBCMT:hooks.obj
 0002:00007610       __sehtable$___FrameUnwindToState 10020610     LIBCMT:frame.obj
 0002:00007638       __sehtable$?CallCatchBlock@@YAPAXPAUEHExceptionRecord@@PAUEHRegistrationNode@@PAU_CONTEXT@@PBU_s_FuncInfo@@PAXHK@Z 10020638     LIBCMT:frame.obj
 0002:00007660       __sehtable$___BuildCatchObject 10020660     LIBCMT:frame.obj
 0002:00007680       __sehtable$___DestructExceptionObject 10020680     LIBCMT:frame.obj
 0002:0000769c       __catchsym$?CallUnexpected@@YAXPBU_s_ESTypeList@@@Z$2 1002069c     LIBCMT:frame.obj
 0002:000076ac       __unwindtable$?CallUnexpected@@YAXPBU_s_ESTypeList@@@Z 100206ac     LIBCMT:frame.obj
 0002:000076bc       __tryblocktable$?CallUnexpected@@YAXPBU_s_ESTypeList@@@Z 100206bc     LIBCMT:frame.obj
 0002:000076d0       __ehfuncinfo$?CallUnexpected@@YAXPBU_s_ESTypeList@@@Z 100206d0     LIBCMT:frame.obj
 0002:000076f8       __sehtable$___BuildCatchObjectHelper 100206f8     LIBCMT:frame.obj
 0002:00007750       __sehtable$?_Type_info_dtor@type_info@@CAXPAV1@@Z 10020750     LIBCMT:typname.obj
 0002:00007770       __sehtable$__fcloseall     10020770     LIBCMT:closeall.obj
 0002:00007790       __sehtable$__close         10020790     LIBCMT:close.obj
 0002:000077b0       __sehtable$__commit        100207b0     LIBCMT:commit.obj
 0002:000077d0       __sehtable$__write         100207d0     LIBCMT:write.obj
 0002:000077f0       __sehtable$__ftelli64      100207f0     LIBCMT:ftelli64.obj
 0002:00007810       __sehtable$__lseeki64      10020810     LIBCMT:lseeki64.obj
 0002:00007830       __sehtable$__IsNonwritableInCurrentImage 10020830     LIBCMT:pesect.obj
 0002:00007850       __sehtable$___lock_fhandle 10020850     LIBCMT:osfinfo.obj
 0002:00007870       __sehtable$__read          10020870     LIBCMT:read.obj
 0002:00007890       .edata                     10020890     nslog.exp
 0002:000078b8       rgpv                       100208b8     nslog.exp
 0002:000078bc       rgszName                   100208bc     nslog.exp
 0002:000078c0       rgwOrd                     100208c0     nslog.exp
 0002:000078c2       szName                     100208c2     nslog.exp
 0002:000078cd       $N00001                    100208cd     nslog.exp
 0002:00007a90       .idata$6                   10020a90     kernel32:KERNEL32.dll
 0002:000080ce       .idata$6                   100210ce     node:node.dll
 0003:00000000       _init                      10022000     libcpmt:xlock.obj
 0003:00000008       _atcount_cdecl             10022008     libcpmt:iosptrs.obj
 0003:00000460       __locktable                10022460     LIBCMT:mlock.obj
 0003:000005f4       ?isPackaged@?1??__crtIsPackagedApp@@9@9 100225f4     LIBCMT:winapisupp.obj
 0003:000005f8       _errtable                  100225f8     LIBCMT:dosmap.obj
 0003:00000760       _ErrnoNoMem                10022760     LIBCMT:dosmap.obj
 0003:00000764       _DoserrorNoMem             10022764     LIBCMT:dosmap.obj
 0003:00000770       _NAME_                     10022770     LIBCMT:sqrt.obj
 0003:000007a8       ?_names@?1??_get_fname@@9@9 100227a8     LIBCMT:fpexcept.obj
 0003:00000890       _over                      10022890     LIBCMT:fpctrl.obj
 0003:0000089c       _under                     1002289c     LIBCMT:fpctrl.obj
 0003:000008a8       ?__DAZ_ENABLED@?1??__set_fpsr_sse2@@9@9 100228a8     LIBCMT:fpctrl.obj
 0003:00000cd8       ___rgctypeflag             10022cd8     LIBCMT:mbctype.obj
 0003:00000ce0       ___rgcode_page_info        10022ce0     LIBCMT:mbctype.obj
 0003:00001004       __ctype_loc_style          10023004     LIBCMT:wsetloca.obj
 0003:00001088       _dststart                  10023088     LIBCMT:tzset.obj
 0003:00001094       _dstend                    10023094     LIBCMT:tzset.obj
 0003:000010b0       _tzstd                     100230b0     LIBCMT:timeset.obj
 0003:000010f0       _tzdst                     100230f0     LIBCMT:timeset.obj
 0003:000012c8       _DoubleFormat              100232c8     LIBCMT:intrncvt.obj
 0003:000012e0       _FloatFormat               100232e0     LIBCMT:intrncvt.obj
 0003:000015d0       __module                   100235d0     main.obj
 0003:00001980       _allocator_arg             10023980     libcpmt:syserror.obj
 0003:00001981       _piecewise_construct       10023981     libcpmt:syserror.obj
 0003:00001982       __Tuple_alloc              10023982     libcpmt:xthrow.obj
 0003:00001983       _ignore                    10023983     libcpmt:xthrow.obj
 0003:00001984       _allocator_arg             10023984     libcpmt:xthrow.obj
 0003:00001985       _piecewise_construct       10023985     libcpmt:xthrow.obj
 0003:0000198c       _global_locale             1002398c     libcpmt:locale0.obj
 0003:00001994       __Fac_head                 10023994     libcpmt:locale0.obj
 0003:000019a0       _allocator_arg             100239a0     libcpmt:locale0.obj
 0003:000019a1       _piecewise_construct       100239a1     libcpmt:locale0.obj
 0003:000019a2       __Fac_tidy_reg             100239a2     libcpmt:locale0.obj
 0003:000019ac       _classic_locale            100239ac     libcpmt:locale0.obj
 0003:000019b4       ?registered@?1??_Setgloballocale@locale@std@@CAXPAX@Z@4_NA 100239b4     libcpmt:locale0.obj
 0003:000019b8       _init_cout                 100239b8     libcpmt:cout.obj
 0003:000019b9       _allocator_arg             100239b9     libcpmt:cout.obj
 0003:000019ba       _piecewise_construct       100239ba     libcpmt:cout.obj
 0003:000019bb       _initlocks                 100239bb     libcpmt:cout.obj
 0003:000019c0       _fout                      100239c0     libcpmt:cout.obj
 0003:00001a78       _initlocks                 10023a78     libcpmt:xlock.obj
 0003:00001a80       _mtx                       10023a80     libcpmt:xlock.obj
 0003:00001b00       _atfuns_cdecl              10023b00     libcpmt:iosptrs.obj
 0003:00001b28       _initlocks                 10023b28     libcpmt:iosptrs.obj
 0003:00001b29       _allocator_arg             10023b29     libcpmt:iosptrs.obj
 0003:00001b2a       _piecewise_construct       10023b2a     libcpmt:iosptrs.obj
 0003:00001b2b       _init_atexit               10023b2b     libcpmt:iosptrs.obj
 0003:00001b2c       _allocator_arg             10023b2c     libcpmt:locale.obj
 0003:00001b2d       _piecewise_construct       10023b2d     libcpmt:locale.obj
 0003:00001b3c       _stdstr                    10023b3c     libcpmt:ios.obj
 0003:00001b64       _stdopens                  10023b64     libcpmt:ios.obj
 0003:00001b6e       _allocator_arg             10023b6e     libcpmt:ios.obj
 0003:00001b6f       _piecewise_construct       10023b6f     libcpmt:ios.obj
 0003:00001b70       _allocator_arg             10023b70     libcpmt:wlocale.obj
 0003:00001b71       _piecewise_construct       10023b71     libcpmt:wlocale.obj
 0003:00001bc8       _allocator_arg             10023bc8     libcpmt:xlocale.obj
 0003:00001bc9       _piecewise_construct       10023bc9     libcpmt:xlocale.obj
 0003:00001bec       _allocator_arg             10023bec     libcpmt:xdateord.obj
 0003:00001bed       _piecewise_construct       10023bed     libcpmt:xdateord.obj
 0003:00001c0c       ___proc_attached           10023c0c     LIBCMT:dllcrt0.obj
 0003:00001c20       _lclcritsects              10023c20     LIBCMT:mlock.obj
 0003:00001d7c       ___crtCallProc             10023d7c     LIBCMT:winapinls.obj
 0003:00001d80       _GS_ExceptionRecord        10023d80     LIBCMT:gs_report.obj
 0003:00001dd0       _GS_ContextRecord          10023dd0     LIBCMT:gs_report.obj
 0003:0000209c       _DebuggerWasPresent        1002409c     LIBCMT:gs_report.obj
 0003:000020e4       _ctrlc_action              100240e4     LIBCMT:winsig.obj
 0003:000020e8       _ctrlbreak_action          100240e8     LIBCMT:winsig.obj
 0003:000020ec       _abort_action              100240ec     LIBCMT:winsig.obj
 0003:000020f0       _term_action               100240f0     LIBCMT:winsig.obj
 0003:000020f4       _ConsoleCtrlHandler_Installed 100240f4     LIBCMT:winsig.obj
 0003:00002114       _fSystemSet                10024114     LIBCMT:mbctype.obj
 0003:00002220       ?_pgmname@?1??_setargv@@9@9 10024220     LIBCMT:stdargv.obj
 0003:00002330       ___type_info_root_node     10024330     LIBCMT:typname.obj
 0003:00002340       ?outmsg@?9??_NMSG_WRITE@@9@9 10024340     LIBCMT:crt0msg.obj
 0003:00002970       _lastTZ                    10024970     LIBCMT:tzset.obj
 0003:00002974       ?first_time@?1??__tzset@@9@9 10024974     LIBCMT:tzset.obj
 0003:00002978       _tzapiused                 10024978     LIBCMT:tzset.obj
 0003:00002980       _tzinfo                    10024980     LIBCMT:tzset.obj
 0003:00002a2c       _g_pfnRtlGenRandom         10024a2c     LIBCMT:rand_s.obj
 0003:00002a60       _heap                      10024a60     LIBCMT:undname.obj
 0003:00002a7c       ?pfnMessageBox@?1??__crtMessageBoxW@@9@9 10024a7c     LIBCMT:crtmboxw.obj
 0003:00002a80       ?pfnGetActiveWindow@?1??__crtMessageBoxW@@9@9 10024a80     LIBCMT:crtmboxw.obj
 0003:00002a84       ?pfnGetLastActivePopup@?1??__crtMessageBoxW@@9@9 10024a84     LIBCMT:crtmboxw.obj
 0003:00002a88       ?pfnGetProcessWindowStation@?1??__crtMessageBoxW@@9@9 10024a88     LIBCMT:crtmboxw.obj
 0003:00002a8c       ?pfnGetUserObjectInformation@?1??__crtMessageBoxW@@9@9 10024a8c     LIBCMT:crtmboxw.obj
 0003:00002a90       ___enable_percent_n        10024a90     LIBCMT:printf.obj
 0003:00002ab0       _allocator_arg             10024ab0     main.obj
 0003:00002ab1       _piecewise_construct       10024ab1     main.obj
 0003:00002ab2       _allocator_arg             10024ab2     nslog_win.obj
 0003:00002ab3       _piecewise_construct       10024ab3     nslog_win.obj
 0004:00000060       $R000000                   10026060     * linker generated manifest res *

 Exports

  ordinal    name

        1    __register_nslog_
               exported name: _register_nslog_
